
pa-einpersonentransportmittel-hk64.elf:     file format elf32-avr

Sections:
Idx Name          Size      VMA       LMA       File off  Algn
  0 .data         0000025e  00800100  00002efe  00002f92  2**0
                  CONTENTS, ALLOC, LOAD, DATA
  1 .text         00002efe  00000000  00000000  00000094  2**1
                  CONTENTS, ALLOC, LOAD, READONLY, CODE
  2 .bss          000000c3  0080035e  0080035e  000031f0  2**0
                  ALLOC
  3 .stab         000051cc  00000000  00000000  000031f0  2**2
                  CONTENTS, READONLY, DEBUGGING
  4 .stabstr      000010fa  00000000  00000000  000083bc  2**0
                  CONTENTS, READONLY, DEBUGGING

Disassembly of section .text:

00000000 <__vectors>:
       0:	0c 94 de 00 	jmp	0x1bc	; 0x1bc <__ctors_end>
       4:	0c 94 fb 00 	jmp	0x1f6	; 0x1f6 <__bad_interrupt>
       8:	0c 94 fb 00 	jmp	0x1f6	; 0x1f6 <__bad_interrupt>
       c:	0c 94 fb 00 	jmp	0x1f6	; 0x1f6 <__bad_interrupt>
      10:	0c 94 fb 00 	jmp	0x1f6	; 0x1f6 <__bad_interrupt>
      14:	0c 94 fb 00 	jmp	0x1f6	; 0x1f6 <__bad_interrupt>
      18:	0c 94 fb 00 	jmp	0x1f6	; 0x1f6 <__bad_interrupt>
      1c:	0c 94 fb 00 	jmp	0x1f6	; 0x1f6 <__bad_interrupt>
      20:	0c 94 fb 00 	jmp	0x1f6	; 0x1f6 <__bad_interrupt>
      24:	0c 94 fb 00 	jmp	0x1f6	; 0x1f6 <__bad_interrupt>
      28:	0c 94 fb 00 	jmp	0x1f6	; 0x1f6 <__bad_interrupt>
      2c:	0c 94 fb 00 	jmp	0x1f6	; 0x1f6 <__bad_interrupt>
      30:	0c 94 fb 00 	jmp	0x1f6	; 0x1f6 <__bad_interrupt>
      34:	0c 94 fb 00 	jmp	0x1f6	; 0x1f6 <__bad_interrupt>
      38:	0c 94 fb 00 	jmp	0x1f6	; 0x1f6 <__bad_interrupt>
      3c:	0c 94 d8 0d 	jmp	0x1bb0	; 0x1bb0 <__vector_15>
      40:	0c 94 fb 00 	jmp	0x1f6	; 0x1f6 <__bad_interrupt>
      44:	0c 94 fb 00 	jmp	0x1f6	; 0x1f6 <__bad_interrupt>
      48:	0c 94 fb 00 	jmp	0x1f6	; 0x1f6 <__bad_interrupt>
      4c:	0c 94 fb 00 	jmp	0x1f6	; 0x1f6 <__bad_interrupt>
      50:	0c 94 fb 00 	jmp	0x1f6	; 0x1f6 <__bad_interrupt>
      54:	0c 94 fb 00 	jmp	0x1f6	; 0x1f6 <__bad_interrupt>
      58:	0c 94 fb 00 	jmp	0x1f6	; 0x1f6 <__bad_interrupt>
      5c:	0c 94 fb 00 	jmp	0x1f6	; 0x1f6 <__bad_interrupt>
      60:	0c 94 fb 00 	jmp	0x1f6	; 0x1f6 <__bad_interrupt>
      64:	0c 94 fb 00 	jmp	0x1f6	; 0x1f6 <__bad_interrupt>
      68:	0c 94 fb 00 	jmp	0x1f6	; 0x1f6 <__bad_interrupt>
      6c:	0c 94 fb 00 	jmp	0x1f6	; 0x1f6 <__bad_interrupt>
      70:	0c 94 fb 00 	jmp	0x1f6	; 0x1f6 <__bad_interrupt>
      74:	0c 94 fb 00 	jmp	0x1f6	; 0x1f6 <__bad_interrupt>
      78:	0c 94 fb 00 	jmp	0x1f6	; 0x1f6 <__bad_interrupt>
      7c:	0c 94 fb 00 	jmp	0x1f6	; 0x1f6 <__bad_interrupt>
      80:	0c 94 fb 00 	jmp	0x1f6	; 0x1f6 <__bad_interrupt>
      84:	0c 94 a1 07 	jmp	0xf42	; 0xf42 <__vector_33>
      88:	0c 94 fb 00 	jmp	0x1f6	; 0x1f6 <__bad_interrupt>
      8c:	08 4a       	sbci	r16, 0xA8	; 168
      8e:	d7 3b       	cpi	r29, 0xB7	; 183
      90:	3b ce       	rjmp	.-906    	; 0xfffffd08 <__eeprom_end+0xff7efd08>
      92:	01 6e       	ori	r16, 0xE1	; 225
      94:	84 bc       	out	0x24, r8	; 36
      96:	bf fd       	.word	0xfdbf	; ????
      98:	c1 2f       	mov	r28, r17
      9a:	3d 6c       	ori	r19, 0xCD	; 205
      9c:	74 31       	cpi	r23, 0x14	; 20
      9e:	9a bd       	out	0x2a, r25	; 42
      a0:	56 83       	std	Z+6, r21	; 0x06
      a2:	3d da       	rcall	.-2950   	; 0xfffff51e <__eeprom_end+0xff7ef51e>
      a4:	3d 00       	.word	0x003d	; ????
      a6:	c7 7f       	andi	r28, 0xF7	; 247
      a8:	11 be       	out	0x31, r1	; 49
      aa:	d9 e4       	ldi	r29, 0x49	; 73
      ac:	bb 4c       	sbci	r27, 0xCB	; 203
      ae:	3e 91       	ld	r19, -X
      b0:	6b aa       	std	Y+51, r6	; 0x33
      b2:	aa be       	out	0x3a, r10	; 58
      b4:	00 00       	nop
      b6:	00 80       	ld	r0, Z
      b8:	3f 6e       	ori	r19, 0xEF	; 239

000000b9 <__c.1865>:
      b9:	6e 61 6e 00                                         nan.

000000bd <__c.1863>:
      bd:	69 6e 66 00 00 40 7a 10 f3 5a 00 a0 72 4e 18 09     inf..@z..Z..rN..
      cd:	00 10 a5 d4 e8 00 00 e8 76 48 17 00 00 e4 0b 54     ........vH.....T
      dd:	02 00 00 ca 9a 3b 00 00 00 e1 f5 05 00 00 80 96     .....;..........
      ed:	98 00 00 00 40 42 0f 00 00 00 a0 86 01 00 00 00     ....@B..........
      fd:	10 27 00 00 00 00 e8 03 00 00 00 00 64 00 00 00     .'..........d...
     10d:	00 00 0a 00 00 00 00 00 01 00 00 00 00 00 2c 76     ..............,v
     11d:	d8 88 dc 67 4f 08 23 df c1 df ae 59 e1 b1 b7 96     ...gO.#....Y....
     12d:	e5 e3 e4 53 c6 3a e6 51 99 76 96 e8 e6 c2 84 26     ...S.:.Q.v.....&
     13d:	eb 89 8c 9b 62 ed 40 7c 6f fc ef bc 9c 9f 40 f2     ....b.@|o.....@.
     14d:	ba a5 6f a5 f4 90 05 5a 2a f7 5c 93 6b 6c f9 67     ..o....Z*.\.kl.g
     15d:	6d c1 1b fc e0 e4 0d 47 fe f5 20 e6 b5 00 d0 ed     m......G.. .....
     16d:	90 2e 03 00 94 35 77 05 00 80 84 1e 08 00 00 20     .....5w........ 
     17d:	4e 0a 00 00 00 c8 0c 33 33 33 33 0f 98 6e 12 83     N......3333..n..
     18d:	11 41 ef 8d 21 14 89 3b e6 55 16 cf fe e6 db 18     .A..!..;.U......
     19d:	d1 84 4b 38 1b f7 7c 1d 90 1d a4 bb e4 24 20 32     ..K8..|......$ 2
     1ad:	84 72 5e 22 81 00 c9 f1 24 ec a1 e5 3d 27 00        .r^"....$...='.

000001bc <__ctors_end>:
     1bc:	11 24       	eor	r1, r1
     1be:	1f be       	out	0x3f, r1	; 63
     1c0:	cf ef       	ldi	r28, 0xFF	; 255
     1c2:	d0 e1       	ldi	r29, 0x10	; 16
     1c4:	de bf       	out	0x3e, r29	; 62
     1c6:	cd bf       	out	0x3d, r28	; 61

000001c8 <__do_copy_data>:
     1c8:	13 e0       	ldi	r17, 0x03	; 3
     1ca:	a0 e0       	ldi	r26, 0x00	; 0
     1cc:	b1 e0       	ldi	r27, 0x01	; 1
     1ce:	ee ef       	ldi	r30, 0xFE	; 254
     1d0:	fe e2       	ldi	r31, 0x2E	; 46
     1d2:	02 c0       	rjmp	.+4      	; 0x1d8 <__do_copy_data+0x10>
     1d4:	05 90       	lpm	r0, Z+
     1d6:	0d 92       	st	X+, r0
     1d8:	ae 35       	cpi	r26, 0x5E	; 94
     1da:	b1 07       	cpc	r27, r17
     1dc:	d9 f7       	brne	.-10     	; 0x1d4 <__do_copy_data+0xc>

000001de <__do_clear_bss>:
     1de:	14 e0       	ldi	r17, 0x04	; 4
     1e0:	ae e5       	ldi	r26, 0x5E	; 94
     1e2:	b3 e0       	ldi	r27, 0x03	; 3
     1e4:	01 c0       	rjmp	.+2      	; 0x1e8 <.do_clear_bss_start>

000001e6 <.do_clear_bss_loop>:
     1e6:	1d 92       	st	X+, r1

000001e8 <.do_clear_bss_start>:
     1e8:	a1 32       	cpi	r26, 0x21	; 33
     1ea:	b1 07       	cpc	r27, r17
     1ec:	e1 f7       	brne	.-8      	; 0x1e6 <.do_clear_bss_loop>
     1ee:	0e 94 f9 0d 	call	0x1bf2	; 0x1bf2 <main>
     1f2:	0c 94 7d 17 	jmp	0x2efa	; 0x2efa <_exit>

000001f6 <__bad_interrupt>:
     1f6:	0c 94 00 00 	jmp	0	; 0x0 <__vectors>

000001fa <test_acceleration_init_and_calibration>:
     1fa:	ef 92       	push	r14
     1fc:	ff 92       	push	r15
     1fe:	0f 93       	push	r16
     200:	1f 93       	push	r17
     202:	df 93       	push	r29
     204:	cf 93       	push	r28
     206:	00 d0       	rcall	.+0      	; 0x208 <test_acceleration_init_and_calibration+0xe>
     208:	00 d0       	rcall	.+0      	; 0x20a <test_acceleration_init_and_calibration+0x10>
     20a:	00 d0       	rcall	.+0      	; 0x20c <test_acceleration_init_and_calibration+0x12>
     20c:	cd b7       	in	r28, 0x3d	; 61
     20e:	de b7       	in	r29, 0x3e	; 62
     210:	0e 94 59 0a 	call	0x14b2	; 0x14b2 <acceleration_init>
     214:	82 e0       	ldi	r24, 0x02	; 2
     216:	0e 94 40 0d 	call	0x1a80	; 0x1a80 <bma020_set_range>
     21a:	8e 01       	movw	r16, r28
     21c:	0f 5f       	subi	r16, 0xFF	; 255
     21e:	1f 4f       	sbci	r17, 0xFF	; 255
     220:	c8 01       	movw	r24, r16
     222:	0e 94 45 0a 	call	0x148a	; 0x148a <acceleration_get_offset>
     226:	8d b7       	in	r24, 0x3d	; 61
     228:	9e b7       	in	r25, 0x3e	; 62
     22a:	08 97       	sbiw	r24, 0x08	; 8
     22c:	0f b6       	in	r0, 0x3f	; 63
     22e:	f8 94       	cli
     230:	9e bf       	out	0x3e, r25	; 62
     232:	0f be       	out	0x3f, r0	; 63
     234:	8d bf       	out	0x3d, r24	; 61
     236:	ed b7       	in	r30, 0x3d	; 61
     238:	fe b7       	in	r31, 0x3e	; 62
     23a:	31 96       	adiw	r30, 0x01	; 1
     23c:	80 e0       	ldi	r24, 0x00	; 0
     23e:	e8 2e       	mov	r14, r24
     240:	81 e0       	ldi	r24, 0x01	; 1
     242:	f8 2e       	mov	r15, r24
     244:	ad b7       	in	r26, 0x3d	; 61
     246:	be b7       	in	r27, 0x3e	; 62
     248:	12 96       	adiw	r26, 0x02	; 2
     24a:	fc 92       	st	X, r15
     24c:	ee 92       	st	-X, r14
     24e:	11 97       	sbiw	r26, 0x01	; 1
     250:	89 81       	ldd	r24, Y+1	; 0x01
     252:	9a 81       	ldd	r25, Y+2	; 0x02
     254:	93 83       	std	Z+3, r25	; 0x03
     256:	82 83       	std	Z+2, r24	; 0x02
     258:	8b 81       	ldd	r24, Y+3	; 0x03
     25a:	9c 81       	ldd	r25, Y+4	; 0x04
     25c:	95 83       	std	Z+5, r25	; 0x05
     25e:	84 83       	std	Z+4, r24	; 0x04
     260:	8d 81       	ldd	r24, Y+5	; 0x05
     262:	9e 81       	ldd	r25, Y+6	; 0x06
     264:	97 83       	std	Z+7, r25	; 0x07
     266:	86 83       	std	Z+6, r24	; 0x06
     268:	0e 94 ce 16 	call	0x2d9c	; 0x2d9c <printf>
     26c:	ed b7       	in	r30, 0x3d	; 61
     26e:	fe b7       	in	r31, 0x3e	; 62
     270:	38 96       	adiw	r30, 0x08	; 8
     272:	0f b6       	in	r0, 0x3f	; 63
     274:	f8 94       	cli
     276:	fe bf       	out	0x3e, r31	; 62
     278:	0f be       	out	0x3f, r0	; 63
     27a:	ed bf       	out	0x3d, r30	; 61
     27c:	0e 94 0f 0a 	call	0x141e	; 0x141e <acceleration_calibrate_offset>
     280:	c8 01       	movw	r24, r16
     282:	0e 94 45 0a 	call	0x148a	; 0x148a <acceleration_get_offset>
     286:	8d b7       	in	r24, 0x3d	; 61
     288:	9e b7       	in	r25, 0x3e	; 62
     28a:	08 97       	sbiw	r24, 0x08	; 8
     28c:	0f b6       	in	r0, 0x3f	; 63
     28e:	f8 94       	cli
     290:	9e bf       	out	0x3e, r25	; 62
     292:	0f be       	out	0x3f, r0	; 63
     294:	8d bf       	out	0x3d, r24	; 61
     296:	ed b7       	in	r30, 0x3d	; 61
     298:	fe b7       	in	r31, 0x3e	; 62
     29a:	31 96       	adiw	r30, 0x01	; 1
     29c:	ad b7       	in	r26, 0x3d	; 61
     29e:	be b7       	in	r27, 0x3e	; 62
     2a0:	12 96       	adiw	r26, 0x02	; 2
     2a2:	fc 92       	st	X, r15
     2a4:	ee 92       	st	-X, r14
     2a6:	11 97       	sbiw	r26, 0x01	; 1
     2a8:	89 81       	ldd	r24, Y+1	; 0x01
     2aa:	9a 81       	ldd	r25, Y+2	; 0x02
     2ac:	93 83       	std	Z+3, r25	; 0x03
     2ae:	82 83       	std	Z+2, r24	; 0x02
     2b0:	8b 81       	ldd	r24, Y+3	; 0x03
     2b2:	9c 81       	ldd	r25, Y+4	; 0x04
     2b4:	95 83       	std	Z+5, r25	; 0x05
     2b6:	84 83       	std	Z+4, r24	; 0x04
     2b8:	8d 81       	ldd	r24, Y+5	; 0x05
     2ba:	9e 81       	ldd	r25, Y+6	; 0x06
     2bc:	97 83       	std	Z+7, r25	; 0x07
     2be:	86 83       	std	Z+6, r24	; 0x06
     2c0:	0e 94 ce 16 	call	0x2d9c	; 0x2d9c <printf>
     2c4:	8f ef       	ldi	r24, 0xFF	; 255
     2c6:	97 ea       	ldi	r25, 0xA7	; 167
     2c8:	a1 e6       	ldi	r26, 0x61	; 97
     2ca:	81 50       	subi	r24, 0x01	; 1
     2cc:	90 40       	sbci	r25, 0x00	; 0
     2ce:	a0 40       	sbci	r26, 0x00	; 0
     2d0:	e1 f7       	brne	.-8      	; 0x2ca <test_acceleration_init_and_calibration+0xd0>
     2d2:	00 c0       	rjmp	.+0      	; 0x2d4 <test_acceleration_init_and_calibration+0xda>
     2d4:	00 00       	nop
     2d6:	ad b7       	in	r26, 0x3d	; 61
     2d8:	be b7       	in	r27, 0x3e	; 62
     2da:	18 96       	adiw	r26, 0x08	; 8
     2dc:	0f b6       	in	r0, 0x3f	; 63
     2de:	f8 94       	cli
     2e0:	be bf       	out	0x3e, r27	; 62
     2e2:	0f be       	out	0x3f, r0	; 63
     2e4:	ad bf       	out	0x3d, r26	; 61
     2e6:	f0 2e       	mov	r15, r16
     2e8:	e1 2e       	mov	r14, r17
     2ea:	08 e1       	ldi	r16, 0x18	; 24
     2ec:	11 e0       	ldi	r17, 0x01	; 1
     2ee:	8f 2d       	mov	r24, r15
     2f0:	9e 2d       	mov	r25, r14
     2f2:	0e 94 b5 09 	call	0x136a	; 0x136a <acceleration_get_current_acceleration>
     2f6:	00 d0       	rcall	.+0      	; 0x2f8 <test_acceleration_init_and_calibration+0xfe>
     2f8:	00 d0       	rcall	.+0      	; 0x2fa <test_acceleration_init_and_calibration+0x100>
     2fa:	ed b7       	in	r30, 0x3d	; 61
     2fc:	fe b7       	in	r31, 0x3e	; 62
     2fe:	12 83       	std	Z+2, r17	; 0x02
     300:	01 83       	std	Z+1, r16	; 0x01
     302:	2d 81       	ldd	r18, Y+5	; 0x05
     304:	3e 81       	ldd	r19, Y+6	; 0x06
     306:	34 83       	std	Z+4, r19	; 0x04
     308:	23 83       	std	Z+3, r18	; 0x03
     30a:	0e 94 ce 16 	call	0x2d9c	; 0x2d9c <printf>
     30e:	0f 90       	pop	r0
     310:	0f 90       	pop	r0
     312:	0f 90       	pop	r0
     314:	0f 90       	pop	r0
     316:	eb cf       	rjmp	.-42     	; 0x2ee <test_acceleration_init_and_calibration+0xf4>

00000318 <test_acceleration_print_accel_and_position>:
     318:	ef 92       	push	r14
     31a:	ff 92       	push	r15
     31c:	0f 93       	push	r16
     31e:	1f 93       	push	r17
     320:	df 93       	push	r29
     322:	cf 93       	push	r28
     324:	00 d0       	rcall	.+0      	; 0x326 <test_acceleration_print_accel_and_position+0xe>
     326:	00 d0       	rcall	.+0      	; 0x328 <test_acceleration_print_accel_and_position+0x10>
     328:	00 d0       	rcall	.+0      	; 0x32a <test_acceleration_print_accel_and_position+0x12>
     32a:	cd b7       	in	r28, 0x3d	; 61
     32c:	de b7       	in	r29, 0x3e	; 62
     32e:	ce 01       	movw	r24, r28
     330:	01 96       	adiw	r24, 0x01	; 1
     332:	0e 94 b5 09 	call	0x136a	; 0x136a <acceleration_get_current_acceleration>
     336:	69 81       	ldd	r22, Y+1	; 0x01
     338:	7a 81       	ldd	r23, Y+2	; 0x02
     33a:	88 27       	eor	r24, r24
     33c:	77 fd       	sbrc	r23, 7
     33e:	80 95       	com	r24
     340:	98 2f       	mov	r25, r24
     342:	0e 94 94 13 	call	0x2728	; 0x2728 <__floatsisf>
     346:	7b 01       	movw	r14, r22
     348:	8c 01       	movw	r16, r24
     34a:	6d 81       	ldd	r22, Y+5	; 0x05
     34c:	7e 81       	ldd	r23, Y+6	; 0x06
     34e:	88 27       	eor	r24, r24
     350:	77 fd       	sbrc	r23, 7
     352:	80 95       	com	r24
     354:	98 2f       	mov	r25, r24
     356:	0e 94 94 13 	call	0x2728	; 0x2728 <__floatsisf>
     35a:	9b 01       	movw	r18, r22
     35c:	ac 01       	movw	r20, r24
     35e:	c8 01       	movw	r24, r16
     360:	b7 01       	movw	r22, r14
     362:	0e 94 d9 12 	call	0x25b2	; 0x25b2 <atan2>
     366:	90 58       	subi	r25, 0x80	; 128
     368:	23 ef       	ldi	r18, 0xF3	; 243
     36a:	39 e3       	ldi	r19, 0x39	; 57
     36c:	45 e6       	ldi	r20, 0x65	; 101
     36e:	52 e4       	ldi	r21, 0x42	; 66
     370:	0e 94 4c 14 	call	0x2898	; 0x2898 <__mulsf3>
     374:	26 96       	adiw	r28, 0x06	; 6
     376:	0f b6       	in	r0, 0x3f	; 63
     378:	f8 94       	cli
     37a:	de bf       	out	0x3e, r29	; 62
     37c:	0f be       	out	0x3f, r0	; 63
     37e:	cd bf       	out	0x3d, r28	; 61
     380:	cf 91       	pop	r28
     382:	df 91       	pop	r29
     384:	1f 91       	pop	r17
     386:	0f 91       	pop	r16
     388:	ff 90       	pop	r15
     38a:	ef 90       	pop	r14
     38c:	08 95       	ret

0000038e <test_bma020_settings>:
     38e:	df 92       	push	r13
     390:	ef 92       	push	r14
     392:	ff 92       	push	r15
     394:	0f 93       	push	r16
     396:	1f 93       	push	r17
     398:	df 93       	push	r29
     39a:	cf 93       	push	r28
     39c:	00 d0       	rcall	.+0      	; 0x39e <test_bma020_settings+0x10>
     39e:	00 d0       	rcall	.+0      	; 0x3a0 <test_bma020_settings+0x12>
     3a0:	00 d0       	rcall	.+0      	; 0x3a2 <test_bma020_settings+0x14>
     3a2:	cd b7       	in	r28, 0x3d	; 61
     3a4:	de b7       	in	r29, 0x3e	; 62
     3a6:	22 e3       	ldi	r18, 0x32	; 50
     3a8:	d2 2e       	mov	r13, r18
     3aa:	7e 01       	movw	r14, r28
     3ac:	08 94       	sec
     3ae:	e1 1c       	adc	r14, r1
     3b0:	f1 1c       	adc	r15, r1
     3b2:	00 e2       	ldi	r16, 0x20	; 32
     3b4:	11 e0       	ldi	r17, 0x01	; 1
     3b6:	c7 01       	movw	r24, r14
     3b8:	0e 94 79 0a 	call	0x14f2	; 0x14f2 <bma020_read_raw_acceleration>
     3bc:	8d b7       	in	r24, 0x3d	; 61
     3be:	9e b7       	in	r25, 0x3e	; 62
     3c0:	08 97       	sbiw	r24, 0x08	; 8
     3c2:	0f b6       	in	r0, 0x3f	; 63
     3c4:	f8 94       	cli
     3c6:	9e bf       	out	0x3e, r25	; 62
     3c8:	0f be       	out	0x3f, r0	; 63
     3ca:	8d bf       	out	0x3d, r24	; 61
     3cc:	ed b7       	in	r30, 0x3d	; 61
     3ce:	fe b7       	in	r31, 0x3e	; 62
     3d0:	31 96       	adiw	r30, 0x01	; 1
     3d2:	ad b7       	in	r26, 0x3d	; 61
     3d4:	be b7       	in	r27, 0x3e	; 62
     3d6:	12 96       	adiw	r26, 0x02	; 2
     3d8:	1c 93       	st	X, r17
     3da:	0e 93       	st	-X, r16
     3dc:	11 97       	sbiw	r26, 0x01	; 1
     3de:	89 81       	ldd	r24, Y+1	; 0x01
     3e0:	9a 81       	ldd	r25, Y+2	; 0x02
     3e2:	93 83       	std	Z+3, r25	; 0x03
     3e4:	82 83       	std	Z+2, r24	; 0x02
     3e6:	8b 81       	ldd	r24, Y+3	; 0x03
     3e8:	9c 81       	ldd	r25, Y+4	; 0x04
     3ea:	95 83       	std	Z+5, r25	; 0x05
     3ec:	84 83       	std	Z+4, r24	; 0x04
     3ee:	8d 81       	ldd	r24, Y+5	; 0x05
     3f0:	9e 81       	ldd	r25, Y+6	; 0x06
     3f2:	97 83       	std	Z+7, r25	; 0x07
     3f4:	86 83       	std	Z+6, r24	; 0x06
     3f6:	0e 94 ce 16 	call	0x2d9c	; 0x2d9c <printf>
     3fa:	8f e3       	ldi	r24, 0x3F	; 63
     3fc:	9c e9       	ldi	r25, 0x9C	; 156
     3fe:	01 97       	sbiw	r24, 0x01	; 1
     400:	f1 f7       	brne	.-4      	; 0x3fe <test_bma020_settings+0x70>
     402:	00 c0       	rjmp	.+0      	; 0x404 <test_bma020_settings+0x76>
     404:	00 00       	nop
     406:	da 94       	dec	r13
     408:	ad b7       	in	r26, 0x3d	; 61
     40a:	be b7       	in	r27, 0x3e	; 62
     40c:	18 96       	adiw	r26, 0x08	; 8
     40e:	0f b6       	in	r0, 0x3f	; 63
     410:	f8 94       	cli
     412:	be bf       	out	0x3e, r27	; 62
     414:	0f be       	out	0x3f, r0	; 63
     416:	ad bf       	out	0x3d, r26	; 61
     418:	dd 20       	and	r13, r13
     41a:	69 f6       	brne	.-102    	; 0x3b6 <test_bma020_settings+0x28>
     41c:	8a e0       	ldi	r24, 0x0A	; 10
     41e:	90 e0       	ldi	r25, 0x00	; 0
     420:	0e 94 e3 16 	call	0x2dc6	; 0x2dc6 <putchar>
     424:	83 e3       	ldi	r24, 0x33	; 51
     426:	91 e0       	ldi	r25, 0x01	; 1
     428:	0e 94 ea 16 	call	0x2dd4	; 0x2dd4 <puts>
     42c:	8a e0       	ldi	r24, 0x0A	; 10
     42e:	90 e0       	ldi	r25, 0x00	; 0
     430:	0e 94 e3 16 	call	0x2dc6	; 0x2dc6 <putchar>
     434:	0e 94 fd 0a 	call	0x15fa	; 0x15fa <bma020_sleep>
     438:	92 e3       	ldi	r25, 0x32	; 50
     43a:	d9 2e       	mov	r13, r25
     43c:	7e 01       	movw	r14, r28
     43e:	08 94       	sec
     440:	e1 1c       	adc	r14, r1
     442:	f1 1c       	adc	r15, r1
     444:	0f e4       	ldi	r16, 0x4F	; 79
     446:	11 e0       	ldi	r17, 0x01	; 1
     448:	c7 01       	movw	r24, r14
     44a:	0e 94 79 0a 	call	0x14f2	; 0x14f2 <bma020_read_raw_acceleration>
     44e:	8d b7       	in	r24, 0x3d	; 61
     450:	9e b7       	in	r25, 0x3e	; 62
     452:	08 97       	sbiw	r24, 0x08	; 8
     454:	0f b6       	in	r0, 0x3f	; 63
     456:	f8 94       	cli
     458:	9e bf       	out	0x3e, r25	; 62
     45a:	0f be       	out	0x3f, r0	; 63
     45c:	8d bf       	out	0x3d, r24	; 61
     45e:	ed b7       	in	r30, 0x3d	; 61
     460:	fe b7       	in	r31, 0x3e	; 62
     462:	31 96       	adiw	r30, 0x01	; 1
     464:	ad b7       	in	r26, 0x3d	; 61
     466:	be b7       	in	r27, 0x3e	; 62
     468:	12 96       	adiw	r26, 0x02	; 2
     46a:	1c 93       	st	X, r17
     46c:	0e 93       	st	-X, r16
     46e:	11 97       	sbiw	r26, 0x01	; 1
     470:	89 81       	ldd	r24, Y+1	; 0x01
     472:	9a 81       	ldd	r25, Y+2	; 0x02
     474:	93 83       	std	Z+3, r25	; 0x03
     476:	82 83       	std	Z+2, r24	; 0x02
     478:	8b 81       	ldd	r24, Y+3	; 0x03
     47a:	9c 81       	ldd	r25, Y+4	; 0x04
     47c:	95 83       	std	Z+5, r25	; 0x05
     47e:	84 83       	std	Z+4, r24	; 0x04
     480:	8d 81       	ldd	r24, Y+5	; 0x05
     482:	9e 81       	ldd	r25, Y+6	; 0x06
     484:	97 83       	std	Z+7, r25	; 0x07
     486:	86 83       	std	Z+6, r24	; 0x06
     488:	0e 94 ce 16 	call	0x2d9c	; 0x2d9c <printf>
     48c:	8f e3       	ldi	r24, 0x3F	; 63
     48e:	9c e9       	ldi	r25, 0x9C	; 156
     490:	01 97       	sbiw	r24, 0x01	; 1
     492:	f1 f7       	brne	.-4      	; 0x490 <test_bma020_settings+0x102>
     494:	00 c0       	rjmp	.+0      	; 0x496 <test_bma020_settings+0x108>
     496:	00 00       	nop
     498:	da 94       	dec	r13
     49a:	ad b7       	in	r26, 0x3d	; 61
     49c:	be b7       	in	r27, 0x3e	; 62
     49e:	18 96       	adiw	r26, 0x08	; 8
     4a0:	0f b6       	in	r0, 0x3f	; 63
     4a2:	f8 94       	cli
     4a4:	be bf       	out	0x3e, r27	; 62
     4a6:	0f be       	out	0x3f, r0	; 63
     4a8:	ad bf       	out	0x3d, r26	; 61
     4aa:	dd 20       	and	r13, r13
     4ac:	69 f6       	brne	.-102    	; 0x448 <test_bma020_settings+0xba>
     4ae:	8a e0       	ldi	r24, 0x0A	; 10
     4b0:	90 e0       	ldi	r25, 0x00	; 0
     4b2:	0e 94 e3 16 	call	0x2dc6	; 0x2dc6 <putchar>
     4b6:	81 e6       	ldi	r24, 0x61	; 97
     4b8:	91 e0       	ldi	r25, 0x01	; 1
     4ba:	0e 94 ea 16 	call	0x2dd4	; 0x2dd4 <puts>
     4be:	8a e0       	ldi	r24, 0x0A	; 10
     4c0:	90 e0       	ldi	r25, 0x00	; 0
     4c2:	0e 94 e3 16 	call	0x2dc6	; 0x2dc6 <putchar>
     4c6:	0e 94 04 0b 	call	0x1608	; 0x1608 <bma020_soft_reset>
     4ca:	82 e3       	ldi	r24, 0x32	; 50
     4cc:	d8 2e       	mov	r13, r24
     4ce:	7e 01       	movw	r14, r28
     4d0:	08 94       	sec
     4d2:	e1 1c       	adc	r14, r1
     4d4:	f1 1c       	adc	r15, r1
     4d6:	00 e2       	ldi	r16, 0x20	; 32
     4d8:	11 e0       	ldi	r17, 0x01	; 1
     4da:	c7 01       	movw	r24, r14
     4dc:	0e 94 79 0a 	call	0x14f2	; 0x14f2 <bma020_read_raw_acceleration>
     4e0:	8d b7       	in	r24, 0x3d	; 61
     4e2:	9e b7       	in	r25, 0x3e	; 62
     4e4:	08 97       	sbiw	r24, 0x08	; 8
     4e6:	0f b6       	in	r0, 0x3f	; 63
     4e8:	f8 94       	cli
     4ea:	9e bf       	out	0x3e, r25	; 62
     4ec:	0f be       	out	0x3f, r0	; 63
     4ee:	8d bf       	out	0x3d, r24	; 61
     4f0:	ed b7       	in	r30, 0x3d	; 61
     4f2:	fe b7       	in	r31, 0x3e	; 62
     4f4:	31 96       	adiw	r30, 0x01	; 1
     4f6:	ad b7       	in	r26, 0x3d	; 61
     4f8:	be b7       	in	r27, 0x3e	; 62
     4fa:	12 96       	adiw	r26, 0x02	; 2
     4fc:	1c 93       	st	X, r17
     4fe:	0e 93       	st	-X, r16
     500:	11 97       	sbiw	r26, 0x01	; 1
     502:	89 81       	ldd	r24, Y+1	; 0x01
     504:	9a 81       	ldd	r25, Y+2	; 0x02
     506:	93 83       	std	Z+3, r25	; 0x03
     508:	82 83       	std	Z+2, r24	; 0x02
     50a:	8b 81       	ldd	r24, Y+3	; 0x03
     50c:	9c 81       	ldd	r25, Y+4	; 0x04
     50e:	95 83       	std	Z+5, r25	; 0x05
     510:	84 83       	std	Z+4, r24	; 0x04
     512:	8d 81       	ldd	r24, Y+5	; 0x05
     514:	9e 81       	ldd	r25, Y+6	; 0x06
     516:	97 83       	std	Z+7, r25	; 0x07
     518:	86 83       	std	Z+6, r24	; 0x06
     51a:	0e 94 ce 16 	call	0x2d9c	; 0x2d9c <printf>
     51e:	8f e3       	ldi	r24, 0x3F	; 63
     520:	9c e9       	ldi	r25, 0x9C	; 156
     522:	01 97       	sbiw	r24, 0x01	; 1
     524:	f1 f7       	brne	.-4      	; 0x522 <test_bma020_settings+0x194>
     526:	00 c0       	rjmp	.+0      	; 0x528 <test_bma020_settings+0x19a>
     528:	00 00       	nop
     52a:	da 94       	dec	r13
     52c:	ad b7       	in	r26, 0x3d	; 61
     52e:	be b7       	in	r27, 0x3e	; 62
     530:	18 96       	adiw	r26, 0x08	; 8
     532:	0f b6       	in	r0, 0x3f	; 63
     534:	f8 94       	cli
     536:	be bf       	out	0x3e, r27	; 62
     538:	0f be       	out	0x3f, r0	; 63
     53a:	ad bf       	out	0x3d, r26	; 61
     53c:	dd 20       	and	r13, r13
     53e:	69 f6       	brne	.-102    	; 0x4da <test_bma020_settings+0x14c>
     540:	26 96       	adiw	r28, 0x06	; 6
     542:	0f b6       	in	r0, 0x3f	; 63
     544:	f8 94       	cli
     546:	de bf       	out	0x3e, r29	; 62
     548:	0f be       	out	0x3f, r0	; 63
     54a:	cd bf       	out	0x3d, r28	; 61
     54c:	cf 91       	pop	r28
     54e:	df 91       	pop	r29
     550:	1f 91       	pop	r17
     552:	0f 91       	pop	r16
     554:	ff 90       	pop	r15
     556:	ef 90       	pop	r14
     558:	df 90       	pop	r13
     55a:	08 95       	ret

0000055c <test_md25_encoders>:
     55c:	ff 92       	push	r15
     55e:	0f 93       	push	r16
     560:	1f 93       	push	r17
     562:	cf 93       	push	r28
     564:	df 93       	push	r29
     566:	0e 94 ac 0e 	call	0x1d58	; 0x1d58 <md25_cmd_reset_encoders>
     56a:	81 e0       	ldi	r24, 0x01	; 1
     56c:	0e 94 3d 0e 	call	0x1c7a	; 0x1c7a <md25_set_mode>
     570:	80 e0       	ldi	r24, 0x00	; 0
     572:	60 e0       	ldi	r22, 0x00	; 0
     574:	0e 94 0f 0e 	call	0x1c1e	; 0x1c1e <md25_set_speed>
     578:	81 e2       	ldi	r24, 0x21	; 33
     57a:	0e 94 1c 0e 	call	0x1c38	; 0x1c38 <md25_set_motor1_speed>
     57e:	ff 24       	eor	r15, r15
     580:	f3 94       	inc	r15
     582:	ca e6       	ldi	r28, 0x6A	; 106
     584:	d1 e0       	ldi	r29, 0x01	; 1
     586:	0b e7       	ldi	r16, 0x7B	; 123
     588:	11 e0       	ldi	r17, 0x01	; 1
     58a:	85 b3       	in	r24, 0x15	; 21
     58c:	8f 25       	eor	r24, r15
     58e:	85 bb       	out	0x15, r24	; 21
     590:	80 e0       	ldi	r24, 0x00	; 0
     592:	0e 94 4e 0e 	call	0x1c9c	; 0x1c9c <md25_get_motor_encoder>
     596:	00 d0       	rcall	.+0      	; 0x598 <test_md25_encoders+0x3c>
     598:	00 d0       	rcall	.+0      	; 0x59a <test_md25_encoders+0x3e>
     59a:	00 d0       	rcall	.+0      	; 0x59c <test_md25_encoders+0x40>
     59c:	ed b7       	in	r30, 0x3d	; 61
     59e:	fe b7       	in	r31, 0x3e	; 62
     5a0:	d2 83       	std	Z+2, r29	; 0x02
     5a2:	c1 83       	std	Z+1, r28	; 0x01
     5a4:	63 83       	std	Z+3, r22	; 0x03
     5a6:	74 83       	std	Z+4, r23	; 0x04
     5a8:	85 83       	std	Z+5, r24	; 0x05
     5aa:	96 83       	std	Z+6, r25	; 0x06
     5ac:	0e 94 ce 16 	call	0x2d9c	; 0x2d9c <printf>
     5b0:	8d b7       	in	r24, 0x3d	; 61
     5b2:	9e b7       	in	r25, 0x3e	; 62
     5b4:	06 96       	adiw	r24, 0x06	; 6
     5b6:	0f b6       	in	r0, 0x3f	; 63
     5b8:	f8 94       	cli
     5ba:	9e bf       	out	0x3e, r25	; 62
     5bc:	0f be       	out	0x3f, r0	; 63
     5be:	8d bf       	out	0x3d, r24	; 61
     5c0:	81 e0       	ldi	r24, 0x01	; 1
     5c2:	0e 94 4e 0e 	call	0x1c9c	; 0x1c9c <md25_get_motor_encoder>
     5c6:	00 d0       	rcall	.+0      	; 0x5c8 <test_md25_encoders+0x6c>
     5c8:	00 d0       	rcall	.+0      	; 0x5ca <test_md25_encoders+0x6e>
     5ca:	00 d0       	rcall	.+0      	; 0x5cc <test_md25_encoders+0x70>
     5cc:	ed b7       	in	r30, 0x3d	; 61
     5ce:	fe b7       	in	r31, 0x3e	; 62
     5d0:	12 83       	std	Z+2, r17	; 0x02
     5d2:	01 83       	std	Z+1, r16	; 0x01
     5d4:	63 83       	std	Z+3, r22	; 0x03
     5d6:	74 83       	std	Z+4, r23	; 0x04
     5d8:	85 83       	std	Z+5, r24	; 0x05
     5da:	96 83       	std	Z+6, r25	; 0x06
     5dc:	0e 94 ce 16 	call	0x2d9c	; 0x2d9c <printf>
     5e0:	8d b7       	in	r24, 0x3d	; 61
     5e2:	9e b7       	in	r25, 0x3e	; 62
     5e4:	06 96       	adiw	r24, 0x06	; 6
     5e6:	0f b6       	in	r0, 0x3f	; 63
     5e8:	f8 94       	cli
     5ea:	9e bf       	out	0x3e, r25	; 62
     5ec:	0f be       	out	0x3f, r0	; 63
     5ee:	8d bf       	out	0x3d, r24	; 61
     5f0:	cc cf       	rjmp	.-104    	; 0x58a <test_md25_encoders+0x2e>

000005f2 <test_md25_volts_and_currents>:
     5f2:	df 92       	push	r13
     5f4:	ef 92       	push	r14
     5f6:	ff 92       	push	r15
     5f8:	0f 93       	push	r16
     5fa:	1f 93       	push	r17
     5fc:	cf 93       	push	r28
     5fe:	df 93       	push	r29
     600:	0e 94 ac 0e 	call	0x1d58	; 0x1d58 <md25_cmd_reset_encoders>
     604:	81 e0       	ldi	r24, 0x01	; 1
     606:	0e 94 3d 0e 	call	0x1c7a	; 0x1c7a <md25_set_mode>
     60a:	86 ef       	ldi	r24, 0xF6	; 246
     60c:	6a e0       	ldi	r22, 0x0A	; 10
     60e:	0e 94 0f 0e 	call	0x1c1e	; 0x1c1e <md25_set_speed>
     612:	dd 24       	eor	r13, r13
     614:	d3 94       	inc	r13
     616:	8c e8       	ldi	r24, 0x8C	; 140
     618:	e8 2e       	mov	r14, r24
     61a:	81 e0       	ldi	r24, 0x01	; 1
     61c:	f8 2e       	mov	r15, r24
     61e:	03 e9       	ldi	r16, 0x93	; 147
     620:	11 e0       	ldi	r17, 0x01	; 1
     622:	ce e9       	ldi	r28, 0x9E	; 158
     624:	d1 e0       	ldi	r29, 0x01	; 1
     626:	85 b3       	in	r24, 0x15	; 21
     628:	8d 25       	eor	r24, r13
     62a:	85 bb       	out	0x15, r24	; 21
     62c:	0e 94 96 0e 	call	0x1d2c	; 0x1d2c <md25_get_battery_volts>
     630:	00 d0       	rcall	.+0      	; 0x632 <test_md25_volts_and_currents+0x40>
     632:	00 d0       	rcall	.+0      	; 0x634 <test_md25_volts_and_currents+0x42>
     634:	ed b7       	in	r30, 0x3d	; 61
     636:	fe b7       	in	r31, 0x3e	; 62
     638:	31 96       	adiw	r30, 0x01	; 1
     63a:	ad b7       	in	r26, 0x3d	; 61
     63c:	be b7       	in	r27, 0x3e	; 62
     63e:	12 96       	adiw	r26, 0x02	; 2
     640:	fc 92       	st	X, r15
     642:	ee 92       	st	-X, r14
     644:	11 97       	sbiw	r26, 0x01	; 1
     646:	82 83       	std	Z+2, r24	; 0x02
     648:	13 82       	std	Z+3, r1	; 0x03
     64a:	0e 94 ce 16 	call	0x2d9c	; 0x2d9c <printf>
     64e:	0f 90       	pop	r0
     650:	0f 90       	pop	r0
     652:	0f 90       	pop	r0
     654:	0f 90       	pop	r0
     656:	80 e0       	ldi	r24, 0x00	; 0
     658:	0e 94 9b 0e 	call	0x1d36	; 0x1d36 <md25_get_motor_current>
     65c:	00 d0       	rcall	.+0      	; 0x65e <test_md25_volts_and_currents+0x6c>
     65e:	00 d0       	rcall	.+0      	; 0x660 <test_md25_volts_and_currents+0x6e>
     660:	ed b7       	in	r30, 0x3d	; 61
     662:	fe b7       	in	r31, 0x3e	; 62
     664:	31 96       	adiw	r30, 0x01	; 1
     666:	ad b7       	in	r26, 0x3d	; 61
     668:	be b7       	in	r27, 0x3e	; 62
     66a:	12 96       	adiw	r26, 0x02	; 2
     66c:	1c 93       	st	X, r17
     66e:	0e 93       	st	-X, r16
     670:	11 97       	sbiw	r26, 0x01	; 1
     672:	82 83       	std	Z+2, r24	; 0x02
     674:	13 82       	std	Z+3, r1	; 0x03
     676:	0e 94 ce 16 	call	0x2d9c	; 0x2d9c <printf>
     67a:	0f 90       	pop	r0
     67c:	0f 90       	pop	r0
     67e:	0f 90       	pop	r0
     680:	0f 90       	pop	r0
     682:	81 e0       	ldi	r24, 0x01	; 1
     684:	0e 94 9b 0e 	call	0x1d36	; 0x1d36 <md25_get_motor_current>
     688:	00 d0       	rcall	.+0      	; 0x68a <test_md25_volts_and_currents+0x98>
     68a:	00 d0       	rcall	.+0      	; 0x68c <test_md25_volts_and_currents+0x9a>
     68c:	ed b7       	in	r30, 0x3d	; 61
     68e:	fe b7       	in	r31, 0x3e	; 62
     690:	31 96       	adiw	r30, 0x01	; 1
     692:	ad b7       	in	r26, 0x3d	; 61
     694:	be b7       	in	r27, 0x3e	; 62
     696:	12 96       	adiw	r26, 0x02	; 2
     698:	dc 93       	st	X, r29
     69a:	ce 93       	st	-X, r28
     69c:	11 97       	sbiw	r26, 0x01	; 1
     69e:	82 83       	std	Z+2, r24	; 0x02
     6a0:	13 82       	std	Z+3, r1	; 0x03
     6a2:	0e 94 ce 16 	call	0x2d9c	; 0x2d9c <printf>
     6a6:	0f 90       	pop	r0
     6a8:	0f 90       	pop	r0
     6aa:	0f 90       	pop	r0
     6ac:	0f 90       	pop	r0
     6ae:	bb cf       	rjmp	.-138    	; 0x626 <test_md25_volts_and_currents+0x34>

000006b0 <test_md25_mode>:
     6b0:	1f 93       	push	r17
     6b2:	0e 94 ac 0e 	call	0x1d58	; 0x1d58 <md25_cmd_reset_encoders>
     6b6:	81 e0       	ldi	r24, 0x01	; 1
     6b8:	0e 94 3d 0e 	call	0x1c7a	; 0x1c7a <md25_set_mode>
     6bc:	8a e0       	ldi	r24, 0x0A	; 10
     6be:	0e 94 32 0e 	call	0x1c64	; 0x1c64 <md25_set_acceleration_rate>
     6c2:	80 e0       	ldi	r24, 0x00	; 0
     6c4:	60 e0       	ldi	r22, 0x00	; 0
     6c6:	0e 94 0f 0e 	call	0x1c1e	; 0x1c1e <md25_set_speed>
     6ca:	80 e0       	ldi	r24, 0x00	; 0
     6cc:	0e 94 3d 0e 	call	0x1c7a	; 0x1c7a <md25_set_mode>
     6d0:	10 e2       	ldi	r17, 0x20	; 32
     6d2:	80 e4       	ldi	r24, 0x40	; 64
     6d4:	60 e4       	ldi	r22, 0x40	; 64
     6d6:	0e 94 0f 0e 	call	0x1c1e	; 0x1c1e <md25_set_speed>
     6da:	8f ef       	ldi	r24, 0xFF	; 255
     6dc:	91 ee       	ldi	r25, 0xE1	; 225
     6de:	a4 e0       	ldi	r26, 0x04	; 4
     6e0:	81 50       	subi	r24, 0x01	; 1
     6e2:	90 40       	sbci	r25, 0x00	; 0
     6e4:	a0 40       	sbci	r26, 0x00	; 0
     6e6:	e1 f7       	brne	.-8      	; 0x6e0 <test_md25_mode+0x30>
     6e8:	00 c0       	rjmp	.+0      	; 0x6ea <test_md25_mode+0x3a>
     6ea:	00 00       	nop
     6ec:	11 50       	subi	r17, 0x01	; 1
     6ee:	89 f7       	brne	.-30     	; 0x6d2 <test_md25_mode+0x22>
     6f0:	81 e0       	ldi	r24, 0x01	; 1
     6f2:	0e 94 3d 0e 	call	0x1c7a	; 0x1c7a <md25_set_mode>
     6f6:	10 e2       	ldi	r17, 0x20	; 32
     6f8:	80 e4       	ldi	r24, 0x40	; 64
     6fa:	60 e4       	ldi	r22, 0x40	; 64
     6fc:	0e 94 0f 0e 	call	0x1c1e	; 0x1c1e <md25_set_speed>
     700:	8f ef       	ldi	r24, 0xFF	; 255
     702:	91 ee       	ldi	r25, 0xE1	; 225
     704:	a4 e0       	ldi	r26, 0x04	; 4
     706:	81 50       	subi	r24, 0x01	; 1
     708:	90 40       	sbci	r25, 0x00	; 0
     70a:	a0 40       	sbci	r26, 0x00	; 0
     70c:	e1 f7       	brne	.-8      	; 0x706 <test_md25_mode+0x56>
     70e:	00 c0       	rjmp	.+0      	; 0x710 <test_md25_mode+0x60>
     710:	00 00       	nop
     712:	11 50       	subi	r17, 0x01	; 1
     714:	89 f7       	brne	.-30     	; 0x6f8 <test_md25_mode+0x48>
     716:	83 e0       	ldi	r24, 0x03	; 3
     718:	0e 94 3d 0e 	call	0x1c7a	; 0x1c7a <md25_set_mode>
     71c:	10 e2       	ldi	r17, 0x20	; 32
     71e:	80 e4       	ldi	r24, 0x40	; 64
     720:	60 e4       	ldi	r22, 0x40	; 64
     722:	0e 94 0f 0e 	call	0x1c1e	; 0x1c1e <md25_set_speed>
     726:	8f ef       	ldi	r24, 0xFF	; 255
     728:	91 ee       	ldi	r25, 0xE1	; 225
     72a:	a4 e0       	ldi	r26, 0x04	; 4
     72c:	81 50       	subi	r24, 0x01	; 1
     72e:	90 40       	sbci	r25, 0x00	; 0
     730:	a0 40       	sbci	r26, 0x00	; 0
     732:	e1 f7       	brne	.-8      	; 0x72c <test_md25_mode+0x7c>
     734:	00 c0       	rjmp	.+0      	; 0x736 <test_md25_mode+0x86>
     736:	00 00       	nop
     738:	11 50       	subi	r17, 0x01	; 1
     73a:	89 f7       	brne	.-30     	; 0x71e <test_md25_mode+0x6e>
     73c:	82 e0       	ldi	r24, 0x02	; 2
     73e:	0e 94 3d 0e 	call	0x1c7a	; 0x1c7a <md25_set_mode>
     742:	10 e2       	ldi	r17, 0x20	; 32
     744:	80 e4       	ldi	r24, 0x40	; 64
     746:	60 e4       	ldi	r22, 0x40	; 64
     748:	0e 94 0f 0e 	call	0x1c1e	; 0x1c1e <md25_set_speed>
     74c:	8f ef       	ldi	r24, 0xFF	; 255
     74e:	91 ee       	ldi	r25, 0xE1	; 225
     750:	a4 e0       	ldi	r26, 0x04	; 4
     752:	81 50       	subi	r24, 0x01	; 1
     754:	90 40       	sbci	r25, 0x00	; 0
     756:	a0 40       	sbci	r26, 0x00	; 0
     758:	e1 f7       	brne	.-8      	; 0x752 <test_md25_mode+0xa2>
     75a:	00 c0       	rjmp	.+0      	; 0x75c <test_md25_mode+0xac>
     75c:	00 00       	nop
     75e:	11 50       	subi	r17, 0x01	; 1
     760:	89 f7       	brne	.-30     	; 0x744 <test_md25_mode+0x94>
     762:	1f 91       	pop	r17
     764:	08 95       	ret

00000766 <test_md25_acceleration>:
     766:	1f 93       	push	r17
     768:	89 ea       	ldi	r24, 0xA9	; 169
     76a:	91 e0       	ldi	r25, 0x01	; 1
     76c:	0e 94 ea 16 	call	0x2dd4	; 0x2dd4 <puts>
     770:	8c ec       	ldi	r24, 0xCC	; 204
     772:	91 e0       	ldi	r25, 0x01	; 1
     774:	0e 94 ea 16 	call	0x2dd4	; 0x2dd4 <puts>
     778:	81 e0       	ldi	r24, 0x01	; 1
     77a:	0e 94 3d 0e 	call	0x1c7a	; 0x1c7a <md25_set_mode>
     77e:	81 e0       	ldi	r24, 0x01	; 1
     780:	0e 94 b2 0e 	call	0x1d64	; 0x1d64 <md25_cmd_enable_speed_regulation>
     784:	80 e0       	ldi	r24, 0x00	; 0
     786:	60 e0       	ldi	r22, 0x00	; 0
     788:	0e 94 0f 0e 	call	0x1c1e	; 0x1c1e <md25_set_speed>
     78c:	81 ee       	ldi	r24, 0xE1	; 225
     78e:	91 e0       	ldi	r25, 0x01	; 1
     790:	0e 94 ea 16 	call	0x2dd4	; 0x2dd4 <puts>
     794:	81 e0       	ldi	r24, 0x01	; 1
     796:	0e 94 32 0e 	call	0x1c64	; 0x1c64 <md25_set_acceleration_rate>
     79a:	83 e1       	ldi	r24, 0x13	; 19
     79c:	92 e0       	ldi	r25, 0x02	; 2
     79e:	0e 94 ea 16 	call	0x2dd4	; 0x2dd4 <puts>
     7a2:	1a e0       	ldi	r17, 0x0A	; 10
     7a4:	84 e6       	ldi	r24, 0x64	; 100
     7a6:	60 e0       	ldi	r22, 0x00	; 0
     7a8:	0e 94 0f 0e 	call	0x1c1e	; 0x1c1e <md25_set_speed>
     7ac:	8f ef       	ldi	r24, 0xFF	; 255
     7ae:	93 ed       	ldi	r25, 0xD3	; 211
     7b0:	a0 e3       	ldi	r26, 0x30	; 48
     7b2:	81 50       	subi	r24, 0x01	; 1
     7b4:	90 40       	sbci	r25, 0x00	; 0
     7b6:	a0 40       	sbci	r26, 0x00	; 0
     7b8:	e1 f7       	brne	.-8      	; 0x7b2 <test_md25_acceleration+0x4c>
     7ba:	00 c0       	rjmp	.+0      	; 0x7bc <test_md25_acceleration+0x56>
     7bc:	00 00       	nop
     7be:	11 50       	subi	r17, 0x01	; 1
     7c0:	89 f7       	brne	.-30     	; 0x7a4 <test_md25_acceleration+0x3e>
     7c2:	8b e2       	ldi	r24, 0x2B	; 43
     7c4:	92 e0       	ldi	r25, 0x02	; 2
     7c6:	0e 94 ea 16 	call	0x2dd4	; 0x2dd4 <puts>
     7ca:	80 e0       	ldi	r24, 0x00	; 0
     7cc:	0e 94 b2 0e 	call	0x1d64	; 0x1d64 <md25_cmd_enable_speed_regulation>
     7d0:	8c ec       	ldi	r24, 0xCC	; 204
     7d2:	91 e0       	ldi	r25, 0x01	; 1
     7d4:	0e 94 ea 16 	call	0x2dd4	; 0x2dd4 <puts>
     7d8:	80 e0       	ldi	r24, 0x00	; 0
     7da:	60 e0       	ldi	r22, 0x00	; 0
     7dc:	0e 94 0f 0e 	call	0x1c1e	; 0x1c1e <md25_set_speed>
     7e0:	8f ef       	ldi	r24, 0xFF	; 255
     7e2:	93 e2       	ldi	r25, 0x23	; 35
     7e4:	a4 ef       	ldi	r26, 0xF4	; 244
     7e6:	81 50       	subi	r24, 0x01	; 1
     7e8:	90 40       	sbci	r25, 0x00	; 0
     7ea:	a0 40       	sbci	r26, 0x00	; 0
     7ec:	e1 f7       	brne	.-8      	; 0x7e6 <test_md25_acceleration+0x80>
     7ee:	00 c0       	rjmp	.+0      	; 0x7f0 <test_md25_acceleration+0x8a>
     7f0:	00 00       	nop
     7f2:	84 e5       	ldi	r24, 0x54	; 84
     7f4:	92 e0       	ldi	r25, 0x02	; 2
     7f6:	0e 94 ea 16 	call	0x2dd4	; 0x2dd4 <puts>
     7fa:	15 e0       	ldi	r17, 0x05	; 5
     7fc:	84 e6       	ldi	r24, 0x64	; 100
     7fe:	60 e0       	ldi	r22, 0x00	; 0
     800:	0e 94 0f 0e 	call	0x1c1e	; 0x1c1e <md25_set_speed>
     804:	8f ef       	ldi	r24, 0xFF	; 255
     806:	93 ed       	ldi	r25, 0xD3	; 211
     808:	a0 e3       	ldi	r26, 0x30	; 48
     80a:	81 50       	subi	r24, 0x01	; 1
     80c:	90 40       	sbci	r25, 0x00	; 0
     80e:	a0 40       	sbci	r26, 0x00	; 0
     810:	e1 f7       	brne	.-8      	; 0x80a <test_md25_acceleration+0xa4>
     812:	00 c0       	rjmp	.+0      	; 0x814 <test_md25_acceleration+0xae>
     814:	00 00       	nop
     816:	11 50       	subi	r17, 0x01	; 1
     818:	89 f7       	brne	.-30     	; 0x7fc <test_md25_acceleration+0x96>
     81a:	1f 91       	pop	r17
     81c:	08 95       	ret

0000081e <test_motor_control_set_different_speeds>:
     81e:	af 92       	push	r10
     820:	bf 92       	push	r11
     822:	cf 92       	push	r12
     824:	df 92       	push	r13
     826:	ef 92       	push	r14
     828:	ff 92       	push	r15
     82a:	0f 93       	push	r16
     82c:	1f 93       	push	r17
     82e:	df 93       	push	r29
     830:	cf 93       	push	r28
     832:	00 d0       	rcall	.+0      	; 0x834 <test_motor_control_set_different_speeds+0x16>
     834:	00 d0       	rcall	.+0      	; 0x836 <test_motor_control_set_different_speeds+0x18>
     836:	cd b7       	in	r28, 0x3d	; 61
     838:	de b7       	in	r29, 0x3e	; 62
     83a:	81 e0       	ldi	r24, 0x01	; 1
     83c:	0e 94 3d 0e 	call	0x1c7a	; 0x1c7a <md25_set_mode>
     840:	00 d0       	rcall	.+0      	; 0x842 <test_motor_control_set_different_speeds+0x24>
     842:	8b e6       	ldi	r24, 0x6B	; 107
     844:	92 e0       	ldi	r25, 0x02	; 2
     846:	ad b7       	in	r26, 0x3d	; 61
     848:	be b7       	in	r27, 0x3e	; 62
     84a:	12 96       	adiw	r26, 0x02	; 2
     84c:	9c 93       	st	X, r25
     84e:	8e 93       	st	-X, r24
     850:	11 97       	sbiw	r26, 0x01	; 1
     852:	0e 94 ce 16 	call	0x2d9c	; 0x2d9c <printf>
     856:	0f 90       	pop	r0
     858:	0f 90       	pop	r0
     85a:	89 e9       	ldi	r24, 0x99	; 153
     85c:	92 e0       	ldi	r25, 0x02	; 2
     85e:	0e 94 ea 16 	call	0x2dd4	; 0x2dd4 <puts>
     862:	23 e0       	ldi	r18, 0x03	; 3
     864:	e2 2e       	mov	r14, r18
     866:	f1 2c       	mov	r15, r1
     868:	ec 0e       	add	r14, r28
     86a:	fd 1e       	adc	r15, r29
     86c:	c7 01       	movw	r24, r14
     86e:	0e 94 f7 0e 	call	0x1dee	; 0x1dee <motor_control_get_current_speed>
     872:	00 d0       	rcall	.+0      	; 0x874 <test_motor_control_set_different_speeds+0x56>
     874:	00 d0       	rcall	.+0      	; 0x876 <test_motor_control_set_different_speeds+0x58>
     876:	00 d0       	rcall	.+0      	; 0x878 <test_motor_control_set_different_speeds+0x5a>
     878:	ed b7       	in	r30, 0x3d	; 61
     87a:	fe b7       	in	r31, 0x3e	; 62
     87c:	31 96       	adiw	r30, 0x01	; 1
     87e:	0e e9       	ldi	r16, 0x9E	; 158
     880:	12 e0       	ldi	r17, 0x02	; 2
     882:	ad b7       	in	r26, 0x3d	; 61
     884:	be b7       	in	r27, 0x3e	; 62
     886:	12 96       	adiw	r26, 0x02	; 2
     888:	1c 93       	st	X, r17
     88a:	0e 93       	st	-X, r16
     88c:	11 97       	sbiw	r26, 0x01	; 1
     88e:	8b 81       	ldd	r24, Y+3	; 0x03
     890:	99 27       	eor	r25, r25
     892:	87 fd       	sbrc	r24, 7
     894:	90 95       	com	r25
     896:	93 83       	std	Z+3, r25	; 0x03
     898:	82 83       	std	Z+2, r24	; 0x02
     89a:	8c 81       	ldd	r24, Y+4	; 0x04
     89c:	99 27       	eor	r25, r25
     89e:	87 fd       	sbrc	r24, 7
     8a0:	90 95       	com	r25
     8a2:	95 83       	std	Z+5, r25	; 0x05
     8a4:	84 83       	std	Z+4, r24	; 0x04
     8a6:	0e 94 ce 16 	call	0x2d9c	; 0x2d9c <printf>
     8aa:	19 82       	std	Y+1, r1	; 0x01
     8ac:	1a 82       	std	Y+2, r1	; 0x02
     8ae:	ed b7       	in	r30, 0x3d	; 61
     8b0:	fe b7       	in	r31, 0x3e	; 62
     8b2:	36 96       	adiw	r30, 0x06	; 6
     8b4:	0f b6       	in	r0, 0x3f	; 63
     8b6:	f8 94       	cli
     8b8:	fe bf       	out	0x3e, r31	; 62
     8ba:	0f be       	out	0x3f, r0	; 63
     8bc:	ed bf       	out	0x3d, r30	; 61
     8be:	6e 01       	movw	r12, r28
     8c0:	08 94       	sec
     8c2:	c1 1c       	adc	r12, r1
     8c4:	d1 1c       	adc	r13, r1
     8c6:	c6 01       	movw	r24, r12
     8c8:	0e 94 e0 0e 	call	0x1dc0	; 0x1dc0 <motor_control_prepare_new_speed>
     8cc:	0e 94 e8 0e 	call	0x1dd0	; 0x1dd0 <motor_control_set_new_speed>
     8d0:	c7 01       	movw	r24, r14
     8d2:	0e 94 f7 0e 	call	0x1dee	; 0x1dee <motor_control_get_current_speed>
     8d6:	00 d0       	rcall	.+0      	; 0x8d8 <test_motor_control_set_different_speeds+0xba>
     8d8:	00 d0       	rcall	.+0      	; 0x8da <test_motor_control_set_different_speeds+0xbc>
     8da:	00 d0       	rcall	.+0      	; 0x8dc <test_motor_control_set_different_speeds+0xbe>
     8dc:	ed b7       	in	r30, 0x3d	; 61
     8de:	fe b7       	in	r31, 0x3e	; 62
     8e0:	31 96       	adiw	r30, 0x01	; 1
     8e2:	ad b7       	in	r26, 0x3d	; 61
     8e4:	be b7       	in	r27, 0x3e	; 62
     8e6:	12 96       	adiw	r26, 0x02	; 2
     8e8:	1c 93       	st	X, r17
     8ea:	0e 93       	st	-X, r16
     8ec:	11 97       	sbiw	r26, 0x01	; 1
     8ee:	8b 81       	ldd	r24, Y+3	; 0x03
     8f0:	99 27       	eor	r25, r25
     8f2:	87 fd       	sbrc	r24, 7
     8f4:	90 95       	com	r25
     8f6:	93 83       	std	Z+3, r25	; 0x03
     8f8:	82 83       	std	Z+2, r24	; 0x02
     8fa:	8c 81       	ldd	r24, Y+4	; 0x04
     8fc:	99 27       	eor	r25, r25
     8fe:	87 fd       	sbrc	r24, 7
     900:	90 95       	com	r25
     902:	95 83       	std	Z+5, r25	; 0x05
     904:	84 83       	std	Z+4, r24	; 0x04
     906:	0e 94 ce 16 	call	0x2d9c	; 0x2d9c <printf>
     90a:	8f ef       	ldi	r24, 0xFF	; 255
     90c:	97 ea       	ldi	r25, 0xA7	; 167
     90e:	a1 e6       	ldi	r26, 0x61	; 97
     910:	81 50       	subi	r24, 0x01	; 1
     912:	90 40       	sbci	r25, 0x00	; 0
     914:	a0 40       	sbci	r26, 0x00	; 0
     916:	e1 f7       	brne	.-8      	; 0x910 <test_motor_control_set_different_speeds+0xf2>
     918:	00 c0       	rjmp	.+0      	; 0x91a <test_motor_control_set_different_speeds+0xfc>
     91a:	00 00       	nop
     91c:	94 e6       	ldi	r25, 0x64	; 100
     91e:	b9 2e       	mov	r11, r25
     920:	b9 82       	std	Y+1, r11	; 0x01
     922:	ba 82       	std	Y+2, r11	; 0x02
     924:	ad b7       	in	r26, 0x3d	; 61
     926:	be b7       	in	r27, 0x3e	; 62
     928:	16 96       	adiw	r26, 0x06	; 6
     92a:	0f b6       	in	r0, 0x3f	; 63
     92c:	f8 94       	cli
     92e:	be bf       	out	0x3e, r27	; 62
     930:	0f be       	out	0x3f, r0	; 63
     932:	ad bf       	out	0x3d, r26	; 61
     934:	c6 01       	movw	r24, r12
     936:	0e 94 e0 0e 	call	0x1dc0	; 0x1dc0 <motor_control_prepare_new_speed>
     93a:	8f ef       	ldi	r24, 0xFF	; 255
     93c:	97 ea       	ldi	r25, 0xA7	; 167
     93e:	a1 e6       	ldi	r26, 0x61	; 97
     940:	81 50       	subi	r24, 0x01	; 1
     942:	90 40       	sbci	r25, 0x00	; 0
     944:	a0 40       	sbci	r26, 0x00	; 0
     946:	e1 f7       	brne	.-8      	; 0x940 <test_motor_control_set_different_speeds+0x122>
     948:	00 c0       	rjmp	.+0      	; 0x94a <test_motor_control_set_different_speeds+0x12c>
     94a:	00 00       	nop
     94c:	0e 94 e8 0e 	call	0x1dd0	; 0x1dd0 <motor_control_set_new_speed>
     950:	c7 01       	movw	r24, r14
     952:	0e 94 f7 0e 	call	0x1dee	; 0x1dee <motor_control_get_current_speed>
     956:	00 d0       	rcall	.+0      	; 0x958 <test_motor_control_set_different_speeds+0x13a>
     958:	00 d0       	rcall	.+0      	; 0x95a <test_motor_control_set_different_speeds+0x13c>
     95a:	00 d0       	rcall	.+0      	; 0x95c <test_motor_control_set_different_speeds+0x13e>
     95c:	ed b7       	in	r30, 0x3d	; 61
     95e:	fe b7       	in	r31, 0x3e	; 62
     960:	31 96       	adiw	r30, 0x01	; 1
     962:	ad b7       	in	r26, 0x3d	; 61
     964:	be b7       	in	r27, 0x3e	; 62
     966:	12 96       	adiw	r26, 0x02	; 2
     968:	1c 93       	st	X, r17
     96a:	0e 93       	st	-X, r16
     96c:	11 97       	sbiw	r26, 0x01	; 1
     96e:	8b 81       	ldd	r24, Y+3	; 0x03
     970:	99 27       	eor	r25, r25
     972:	87 fd       	sbrc	r24, 7
     974:	90 95       	com	r25
     976:	93 83       	std	Z+3, r25	; 0x03
     978:	82 83       	std	Z+2, r24	; 0x02
     97a:	8c 81       	ldd	r24, Y+4	; 0x04
     97c:	99 27       	eor	r25, r25
     97e:	87 fd       	sbrc	r24, 7
     980:	90 95       	com	r25
     982:	95 83       	std	Z+5, r25	; 0x05
     984:	84 83       	std	Z+4, r24	; 0x04
     986:	0e 94 ce 16 	call	0x2d9c	; 0x2d9c <printf>
     98a:	8f ef       	ldi	r24, 0xFF	; 255
     98c:	97 ea       	ldi	r25, 0xA7	; 167
     98e:	a1 e6       	ldi	r26, 0x61	; 97
     990:	81 50       	subi	r24, 0x01	; 1
     992:	90 40       	sbci	r25, 0x00	; 0
     994:	a0 40       	sbci	r26, 0x00	; 0
     996:	e1 f7       	brne	.-8      	; 0x990 <test_motor_control_set_different_speeds+0x172>
     998:	00 c0       	rjmp	.+0      	; 0x99a <test_motor_control_set_different_speeds+0x17c>
     99a:	00 00       	nop
     99c:	19 82       	std	Y+1, r1	; 0x01
     99e:	1a 82       	std	Y+2, r1	; 0x02
     9a0:	ad b7       	in	r26, 0x3d	; 61
     9a2:	be b7       	in	r27, 0x3e	; 62
     9a4:	16 96       	adiw	r26, 0x06	; 6
     9a6:	0f b6       	in	r0, 0x3f	; 63
     9a8:	f8 94       	cli
     9aa:	be bf       	out	0x3e, r27	; 62
     9ac:	0f be       	out	0x3f, r0	; 63
     9ae:	ad bf       	out	0x3d, r26	; 61
     9b0:	c6 01       	movw	r24, r12
     9b2:	0e 94 e0 0e 	call	0x1dc0	; 0x1dc0 <motor_control_prepare_new_speed>
     9b6:	8f ef       	ldi	r24, 0xFF	; 255
     9b8:	93 ed       	ldi	r25, 0xD3	; 211
     9ba:	a0 e3       	ldi	r26, 0x30	; 48
     9bc:	81 50       	subi	r24, 0x01	; 1
     9be:	90 40       	sbci	r25, 0x00	; 0
     9c0:	a0 40       	sbci	r26, 0x00	; 0
     9c2:	e1 f7       	brne	.-8      	; 0x9bc <test_motor_control_set_different_speeds+0x19e>
     9c4:	00 c0       	rjmp	.+0      	; 0x9c6 <test_motor_control_set_different_speeds+0x1a8>
     9c6:	00 00       	nop
     9c8:	0e 94 e8 0e 	call	0x1dd0	; 0x1dd0 <motor_control_set_new_speed>
     9cc:	c7 01       	movw	r24, r14
     9ce:	0e 94 f7 0e 	call	0x1dee	; 0x1dee <motor_control_get_current_speed>
     9d2:	00 d0       	rcall	.+0      	; 0x9d4 <test_motor_control_set_different_speeds+0x1b6>
     9d4:	00 d0       	rcall	.+0      	; 0x9d6 <test_motor_control_set_different_speeds+0x1b8>
     9d6:	00 d0       	rcall	.+0      	; 0x9d8 <test_motor_control_set_different_speeds+0x1ba>
     9d8:	ed b7       	in	r30, 0x3d	; 61
     9da:	fe b7       	in	r31, 0x3e	; 62
     9dc:	31 96       	adiw	r30, 0x01	; 1
     9de:	ad b7       	in	r26, 0x3d	; 61
     9e0:	be b7       	in	r27, 0x3e	; 62
     9e2:	12 96       	adiw	r26, 0x02	; 2
     9e4:	1c 93       	st	X, r17
     9e6:	0e 93       	st	-X, r16
     9e8:	11 97       	sbiw	r26, 0x01	; 1
     9ea:	8b 81       	ldd	r24, Y+3	; 0x03
     9ec:	99 27       	eor	r25, r25
     9ee:	87 fd       	sbrc	r24, 7
     9f0:	90 95       	com	r25
     9f2:	93 83       	std	Z+3, r25	; 0x03
     9f4:	82 83       	std	Z+2, r24	; 0x02
     9f6:	8c 81       	ldd	r24, Y+4	; 0x04
     9f8:	99 27       	eor	r25, r25
     9fa:	87 fd       	sbrc	r24, 7
     9fc:	90 95       	com	r25
     9fe:	95 83       	std	Z+5, r25	; 0x05
     a00:	84 83       	std	Z+4, r24	; 0x04
     a02:	0e 94 ce 16 	call	0x2d9c	; 0x2d9c <printf>
     a06:	8f ef       	ldi	r24, 0xFF	; 255
     a08:	97 ea       	ldi	r25, 0xA7	; 167
     a0a:	a1 e6       	ldi	r26, 0x61	; 97
     a0c:	81 50       	subi	r24, 0x01	; 1
     a0e:	90 40       	sbci	r25, 0x00	; 0
     a10:	a0 40       	sbci	r26, 0x00	; 0
     a12:	e1 f7       	brne	.-8      	; 0xa0c <test_motor_control_set_different_speeds+0x1ee>
     a14:	00 c0       	rjmp	.+0      	; 0xa16 <test_motor_control_set_different_speeds+0x1f8>
     a16:	00 00       	nop
     a18:	19 82       	std	Y+1, r1	; 0x01
     a1a:	8c e9       	ldi	r24, 0x9C	; 156
     a1c:	a8 2e       	mov	r10, r24
     a1e:	aa 82       	std	Y+2, r10	; 0x02
     a20:	ad b7       	in	r26, 0x3d	; 61
     a22:	be b7       	in	r27, 0x3e	; 62
     a24:	16 96       	adiw	r26, 0x06	; 6
     a26:	0f b6       	in	r0, 0x3f	; 63
     a28:	f8 94       	cli
     a2a:	be bf       	out	0x3e, r27	; 62
     a2c:	0f be       	out	0x3f, r0	; 63
     a2e:	ad bf       	out	0x3d, r26	; 61
     a30:	c6 01       	movw	r24, r12
     a32:	0e 94 e0 0e 	call	0x1dc0	; 0x1dc0 <motor_control_prepare_new_speed>
     a36:	8f ef       	ldi	r24, 0xFF	; 255
     a38:	93 ed       	ldi	r25, 0xD3	; 211
     a3a:	a0 e3       	ldi	r26, 0x30	; 48
     a3c:	81 50       	subi	r24, 0x01	; 1
     a3e:	90 40       	sbci	r25, 0x00	; 0
     a40:	a0 40       	sbci	r26, 0x00	; 0
     a42:	e1 f7       	brne	.-8      	; 0xa3c <test_motor_control_set_different_speeds+0x21e>
     a44:	00 c0       	rjmp	.+0      	; 0xa46 <test_motor_control_set_different_speeds+0x228>
     a46:	00 00       	nop
     a48:	0e 94 e8 0e 	call	0x1dd0	; 0x1dd0 <motor_control_set_new_speed>
     a4c:	c7 01       	movw	r24, r14
     a4e:	0e 94 f7 0e 	call	0x1dee	; 0x1dee <motor_control_get_current_speed>
     a52:	00 d0       	rcall	.+0      	; 0xa54 <test_motor_control_set_different_speeds+0x236>
     a54:	00 d0       	rcall	.+0      	; 0xa56 <test_motor_control_set_different_speeds+0x238>
     a56:	00 d0       	rcall	.+0      	; 0xa58 <test_motor_control_set_different_speeds+0x23a>
     a58:	ed b7       	in	r30, 0x3d	; 61
     a5a:	fe b7       	in	r31, 0x3e	; 62
     a5c:	31 96       	adiw	r30, 0x01	; 1
     a5e:	ad b7       	in	r26, 0x3d	; 61
     a60:	be b7       	in	r27, 0x3e	; 62
     a62:	12 96       	adiw	r26, 0x02	; 2
     a64:	1c 93       	st	X, r17
     a66:	0e 93       	st	-X, r16
     a68:	11 97       	sbiw	r26, 0x01	; 1
     a6a:	8b 81       	ldd	r24, Y+3	; 0x03
     a6c:	99 27       	eor	r25, r25
     a6e:	87 fd       	sbrc	r24, 7
     a70:	90 95       	com	r25
     a72:	93 83       	std	Z+3, r25	; 0x03
     a74:	82 83       	std	Z+2, r24	; 0x02
     a76:	8c 81       	ldd	r24, Y+4	; 0x04
     a78:	99 27       	eor	r25, r25
     a7a:	87 fd       	sbrc	r24, 7
     a7c:	90 95       	com	r25
     a7e:	95 83       	std	Z+5, r25	; 0x05
     a80:	84 83       	std	Z+4, r24	; 0x04
     a82:	0e 94 ce 16 	call	0x2d9c	; 0x2d9c <printf>
     a86:	8f ef       	ldi	r24, 0xFF	; 255
     a88:	97 ea       	ldi	r25, 0xA7	; 167
     a8a:	a1 e6       	ldi	r26, 0x61	; 97
     a8c:	81 50       	subi	r24, 0x01	; 1
     a8e:	90 40       	sbci	r25, 0x00	; 0
     a90:	a0 40       	sbci	r26, 0x00	; 0
     a92:	e1 f7       	brne	.-8      	; 0xa8c <test_motor_control_set_different_speeds+0x26e>
     a94:	00 c0       	rjmp	.+0      	; 0xa96 <test_motor_control_set_different_speeds+0x278>
     a96:	00 00       	nop
     a98:	a9 82       	std	Y+1, r10	; 0x01
     a9a:	1a 82       	std	Y+2, r1	; 0x02
     a9c:	ad b7       	in	r26, 0x3d	; 61
     a9e:	be b7       	in	r27, 0x3e	; 62
     aa0:	16 96       	adiw	r26, 0x06	; 6
     aa2:	0f b6       	in	r0, 0x3f	; 63
     aa4:	f8 94       	cli
     aa6:	be bf       	out	0x3e, r27	; 62
     aa8:	0f be       	out	0x3f, r0	; 63
     aaa:	ad bf       	out	0x3d, r26	; 61
     aac:	c6 01       	movw	r24, r12
     aae:	0e 94 e0 0e 	call	0x1dc0	; 0x1dc0 <motor_control_prepare_new_speed>
     ab2:	8f ef       	ldi	r24, 0xFF	; 255
     ab4:	93 ed       	ldi	r25, 0xD3	; 211
     ab6:	a0 e3       	ldi	r26, 0x30	; 48
     ab8:	81 50       	subi	r24, 0x01	; 1
     aba:	90 40       	sbci	r25, 0x00	; 0
     abc:	a0 40       	sbci	r26, 0x00	; 0
     abe:	e1 f7       	brne	.-8      	; 0xab8 <test_motor_control_set_different_speeds+0x29a>
     ac0:	00 c0       	rjmp	.+0      	; 0xac2 <test_motor_control_set_different_speeds+0x2a4>
     ac2:	00 00       	nop
     ac4:	0e 94 e8 0e 	call	0x1dd0	; 0x1dd0 <motor_control_set_new_speed>
     ac8:	c7 01       	movw	r24, r14
     aca:	0e 94 f7 0e 	call	0x1dee	; 0x1dee <motor_control_get_current_speed>
     ace:	00 d0       	rcall	.+0      	; 0xad0 <test_motor_control_set_different_speeds+0x2b2>
     ad0:	00 d0       	rcall	.+0      	; 0xad2 <test_motor_control_set_different_speeds+0x2b4>
     ad2:	00 d0       	rcall	.+0      	; 0xad4 <test_motor_control_set_different_speeds+0x2b6>
     ad4:	ed b7       	in	r30, 0x3d	; 61
     ad6:	fe b7       	in	r31, 0x3e	; 62
     ad8:	31 96       	adiw	r30, 0x01	; 1
     ada:	ad b7       	in	r26, 0x3d	; 61
     adc:	be b7       	in	r27, 0x3e	; 62
     ade:	12 96       	adiw	r26, 0x02	; 2
     ae0:	1c 93       	st	X, r17
     ae2:	0e 93       	st	-X, r16
     ae4:	11 97       	sbiw	r26, 0x01	; 1
     ae6:	8b 81       	ldd	r24, Y+3	; 0x03
     ae8:	99 27       	eor	r25, r25
     aea:	87 fd       	sbrc	r24, 7
     aec:	90 95       	com	r25
     aee:	93 83       	std	Z+3, r25	; 0x03
     af0:	82 83       	std	Z+2, r24	; 0x02
     af2:	8c 81       	ldd	r24, Y+4	; 0x04
     af4:	99 27       	eor	r25, r25
     af6:	87 fd       	sbrc	r24, 7
     af8:	90 95       	com	r25
     afa:	95 83       	std	Z+5, r25	; 0x05
     afc:	84 83       	std	Z+4, r24	; 0x04
     afe:	0e 94 ce 16 	call	0x2d9c	; 0x2d9c <printf>
     b02:	8f ef       	ldi	r24, 0xFF	; 255
     b04:	97 ea       	ldi	r25, 0xA7	; 167
     b06:	a1 e6       	ldi	r26, 0x61	; 97
     b08:	81 50       	subi	r24, 0x01	; 1
     b0a:	90 40       	sbci	r25, 0x00	; 0
     b0c:	a0 40       	sbci	r26, 0x00	; 0
     b0e:	e1 f7       	brne	.-8      	; 0xb08 <test_motor_control_set_different_speeds+0x2ea>
     b10:	00 c0       	rjmp	.+0      	; 0xb12 <test_motor_control_set_different_speeds+0x2f4>
     b12:	00 00       	nop
     b14:	a9 82       	std	Y+1, r10	; 0x01
     b16:	ba 82       	std	Y+2, r11	; 0x02
     b18:	ad b7       	in	r26, 0x3d	; 61
     b1a:	be b7       	in	r27, 0x3e	; 62
     b1c:	16 96       	adiw	r26, 0x06	; 6
     b1e:	0f b6       	in	r0, 0x3f	; 63
     b20:	f8 94       	cli
     b22:	be bf       	out	0x3e, r27	; 62
     b24:	0f be       	out	0x3f, r0	; 63
     b26:	ad bf       	out	0x3d, r26	; 61
     b28:	c6 01       	movw	r24, r12
     b2a:	0e 94 e0 0e 	call	0x1dc0	; 0x1dc0 <motor_control_prepare_new_speed>
     b2e:	8f ef       	ldi	r24, 0xFF	; 255
     b30:	93 ed       	ldi	r25, 0xD3	; 211
     b32:	a0 e3       	ldi	r26, 0x30	; 48
     b34:	81 50       	subi	r24, 0x01	; 1
     b36:	90 40       	sbci	r25, 0x00	; 0
     b38:	a0 40       	sbci	r26, 0x00	; 0
     b3a:	e1 f7       	brne	.-8      	; 0xb34 <test_motor_control_set_different_speeds+0x316>
     b3c:	00 c0       	rjmp	.+0      	; 0xb3e <test_motor_control_set_different_speeds+0x320>
     b3e:	00 00       	nop
     b40:	0e 94 e8 0e 	call	0x1dd0	; 0x1dd0 <motor_control_set_new_speed>
     b44:	c7 01       	movw	r24, r14
     b46:	0e 94 f7 0e 	call	0x1dee	; 0x1dee <motor_control_get_current_speed>
     b4a:	00 d0       	rcall	.+0      	; 0xb4c <test_motor_control_set_different_speeds+0x32e>
     b4c:	00 d0       	rcall	.+0      	; 0xb4e <test_motor_control_set_different_speeds+0x330>
     b4e:	00 d0       	rcall	.+0      	; 0xb50 <test_motor_control_set_different_speeds+0x332>
     b50:	ed b7       	in	r30, 0x3d	; 61
     b52:	fe b7       	in	r31, 0x3e	; 62
     b54:	31 96       	adiw	r30, 0x01	; 1
     b56:	ad b7       	in	r26, 0x3d	; 61
     b58:	be b7       	in	r27, 0x3e	; 62
     b5a:	12 96       	adiw	r26, 0x02	; 2
     b5c:	1c 93       	st	X, r17
     b5e:	0e 93       	st	-X, r16
     b60:	11 97       	sbiw	r26, 0x01	; 1
     b62:	8b 81       	ldd	r24, Y+3	; 0x03
     b64:	99 27       	eor	r25, r25
     b66:	87 fd       	sbrc	r24, 7
     b68:	90 95       	com	r25
     b6a:	93 83       	std	Z+3, r25	; 0x03
     b6c:	82 83       	std	Z+2, r24	; 0x02
     b6e:	8c 81       	ldd	r24, Y+4	; 0x04
     b70:	99 27       	eor	r25, r25
     b72:	87 fd       	sbrc	r24, 7
     b74:	90 95       	com	r25
     b76:	95 83       	std	Z+5, r25	; 0x05
     b78:	84 83       	std	Z+4, r24	; 0x04
     b7a:	0e 94 ce 16 	call	0x2d9c	; 0x2d9c <printf>
     b7e:	8f ef       	ldi	r24, 0xFF	; 255
     b80:	97 ea       	ldi	r25, 0xA7	; 167
     b82:	a1 e6       	ldi	r26, 0x61	; 97
     b84:	81 50       	subi	r24, 0x01	; 1
     b86:	90 40       	sbci	r25, 0x00	; 0
     b88:	a0 40       	sbci	r26, 0x00	; 0
     b8a:	e1 f7       	brne	.-8      	; 0xb84 <test_motor_control_set_different_speeds+0x366>
     b8c:	00 c0       	rjmp	.+0      	; 0xb8e <test_motor_control_set_different_speeds+0x370>
     b8e:	00 00       	nop
     b90:	19 82       	std	Y+1, r1	; 0x01
     b92:	1a 82       	std	Y+2, r1	; 0x02
     b94:	ad b7       	in	r26, 0x3d	; 61
     b96:	be b7       	in	r27, 0x3e	; 62
     b98:	16 96       	adiw	r26, 0x06	; 6
     b9a:	0f b6       	in	r0, 0x3f	; 63
     b9c:	f8 94       	cli
     b9e:	be bf       	out	0x3e, r27	; 62
     ba0:	0f be       	out	0x3f, r0	; 63
     ba2:	ad bf       	out	0x3d, r26	; 61
     ba4:	c6 01       	movw	r24, r12
     ba6:	0e 94 e0 0e 	call	0x1dc0	; 0x1dc0 <motor_control_prepare_new_speed>
     baa:	8f ef       	ldi	r24, 0xFF	; 255
     bac:	93 ed       	ldi	r25, 0xD3	; 211
     bae:	a0 e3       	ldi	r26, 0x30	; 48
     bb0:	81 50       	subi	r24, 0x01	; 1
     bb2:	90 40       	sbci	r25, 0x00	; 0
     bb4:	a0 40       	sbci	r26, 0x00	; 0
     bb6:	e1 f7       	brne	.-8      	; 0xbb0 <test_motor_control_set_different_speeds+0x392>
     bb8:	00 c0       	rjmp	.+0      	; 0xbba <test_motor_control_set_different_speeds+0x39c>
     bba:	00 00       	nop
     bbc:	0e 94 e8 0e 	call	0x1dd0	; 0x1dd0 <motor_control_set_new_speed>
     bc0:	c7 01       	movw	r24, r14
     bc2:	0e 94 f7 0e 	call	0x1dee	; 0x1dee <motor_control_get_current_speed>
     bc6:	00 d0       	rcall	.+0      	; 0xbc8 <test_motor_control_set_different_speeds+0x3aa>
     bc8:	00 d0       	rcall	.+0      	; 0xbca <test_motor_control_set_different_speeds+0x3ac>
     bca:	00 d0       	rcall	.+0      	; 0xbcc <test_motor_control_set_different_speeds+0x3ae>
     bcc:	ed b7       	in	r30, 0x3d	; 61
     bce:	fe b7       	in	r31, 0x3e	; 62
     bd0:	31 96       	adiw	r30, 0x01	; 1
     bd2:	ad b7       	in	r26, 0x3d	; 61
     bd4:	be b7       	in	r27, 0x3e	; 62
     bd6:	12 96       	adiw	r26, 0x02	; 2
     bd8:	1c 93       	st	X, r17
     bda:	0e 93       	st	-X, r16
     bdc:	11 97       	sbiw	r26, 0x01	; 1
     bde:	8b 81       	ldd	r24, Y+3	; 0x03
     be0:	99 27       	eor	r25, r25
     be2:	87 fd       	sbrc	r24, 7
     be4:	90 95       	com	r25
     be6:	93 83       	std	Z+3, r25	; 0x03
     be8:	82 83       	std	Z+2, r24	; 0x02
     bea:	8c 81       	ldd	r24, Y+4	; 0x04
     bec:	99 27       	eor	r25, r25
     bee:	87 fd       	sbrc	r24, 7
     bf0:	90 95       	com	r25
     bf2:	95 83       	std	Z+5, r25	; 0x05
     bf4:	84 83       	std	Z+4, r24	; 0x04
     bf6:	0e 94 ce 16 	call	0x2d9c	; 0x2d9c <printf>
     bfa:	8f ef       	ldi	r24, 0xFF	; 255
     bfc:	97 ea       	ldi	r25, 0xA7	; 167
     bfe:	a1 e6       	ldi	r26, 0x61	; 97
     c00:	81 50       	subi	r24, 0x01	; 1
     c02:	90 40       	sbci	r25, 0x00	; 0
     c04:	a0 40       	sbci	r26, 0x00	; 0
     c06:	e1 f7       	brne	.-8      	; 0xc00 <test_motor_control_set_different_speeds+0x3e2>
     c08:	00 c0       	rjmp	.+0      	; 0xc0a <test_motor_control_set_different_speeds+0x3ec>
     c0a:	00 00       	nop
     c0c:	ad b7       	in	r26, 0x3d	; 61
     c0e:	be b7       	in	r27, 0x3e	; 62
     c10:	16 96       	adiw	r26, 0x06	; 6
     c12:	0f b6       	in	r0, 0x3f	; 63
     c14:	f8 94       	cli
     c16:	be bf       	out	0x3e, r27	; 62
     c18:	0f be       	out	0x3f, r0	; 63
     c1a:	ad bf       	out	0x3d, r26	; 61
     c1c:	8a eb       	ldi	r24, 0xBA	; 186
     c1e:	92 e0       	ldi	r25, 0x02	; 2
     c20:	0e 94 ea 16 	call	0x2dd4	; 0x2dd4 <puts>
     c24:	0f 90       	pop	r0
     c26:	0f 90       	pop	r0
     c28:	0f 90       	pop	r0
     c2a:	0f 90       	pop	r0
     c2c:	cf 91       	pop	r28
     c2e:	df 91       	pop	r29
     c30:	1f 91       	pop	r17
     c32:	0f 91       	pop	r16
     c34:	ff 90       	pop	r15
     c36:	ef 90       	pop	r14
     c38:	df 90       	pop	r13
     c3a:	cf 90       	pop	r12
     c3c:	bf 90       	pop	r11
     c3e:	af 90       	pop	r10
     c40:	08 95       	ret

00000c42 <test_twi_master_get_bytes>:
     c42:	bf 92       	push	r11
     c44:	cf 92       	push	r12
     c46:	df 92       	push	r13
     c48:	ef 92       	push	r14
     c4a:	ff 92       	push	r15
     c4c:	0f 93       	push	r16
     c4e:	1f 93       	push	r17
     c50:	df 93       	push	r29
     c52:	cf 93       	push	r28
     c54:	00 d0       	rcall	.+0      	; 0xc56 <test_twi_master_get_bytes+0x14>
     c56:	0f 92       	push	r0
     c58:	cd b7       	in	r28, 0x3d	; 61
     c5a:	de b7       	in	r29, 0x3e	; 62
     c5c:	de 01       	movw	r26, r28
     c5e:	11 96       	adiw	r26, 0x01	; 1
     c60:	ee e3       	ldi	r30, 0x3E	; 62
     c62:	f3 e0       	ldi	r31, 0x03	; 3
     c64:	83 e0       	ldi	r24, 0x03	; 3
     c66:	01 90       	ld	r0, Z+
     c68:	0d 92       	st	X+, r0
     c6a:	81 50       	subi	r24, 0x01	; 1
     c6c:	e1 f7       	brne	.-8      	; 0xc66 <test_twi_master_get_bytes+0x24>
     c6e:	8e 01       	movw	r16, r28
     c70:	0f 5f       	subi	r16, 0xFF	; 255
     c72:	1f 4f       	sbci	r17, 0xFF	; 255
     c74:	94 e0       	ldi	r25, 0x04	; 4
     c76:	e9 2e       	mov	r14, r25
     c78:	f1 2c       	mov	r15, r1
     c7a:	ec 0e       	add	r14, r28
     c7c:	fd 1e       	adc	r15, r29
     c7e:	8f eb       	ldi	r24, 0xBF	; 191
     c80:	c8 2e       	mov	r12, r24
     c82:	82 e0       	ldi	r24, 0x02	; 2
     c84:	d8 2e       	mov	r13, r24
     c86:	d8 01       	movw	r26, r16
     c88:	bd 90       	ld	r11, X+
     c8a:	8d 01       	movw	r16, r26
     c8c:	88 e3       	ldi	r24, 0x38	; 56
     c8e:	6b 2d       	mov	r22, r11
     c90:	0e 94 5a 08 	call	0x10b4	; 0x10b4 <twi_master_read_register>
     c94:	00 d0       	rcall	.+0      	; 0xc96 <test_twi_master_get_bytes+0x54>
     c96:	00 d0       	rcall	.+0      	; 0xc98 <test_twi_master_get_bytes+0x56>
     c98:	00 d0       	rcall	.+0      	; 0xc9a <test_twi_master_get_bytes+0x58>
     c9a:	ed b7       	in	r30, 0x3d	; 61
     c9c:	fe b7       	in	r31, 0x3e	; 62
     c9e:	31 96       	adiw	r30, 0x01	; 1
     ca0:	ad b7       	in	r26, 0x3d	; 61
     ca2:	be b7       	in	r27, 0x3e	; 62
     ca4:	12 96       	adiw	r26, 0x02	; 2
     ca6:	dc 92       	st	X, r13
     ca8:	ce 92       	st	-X, r12
     caa:	11 97       	sbiw	r26, 0x01	; 1
     cac:	b2 82       	std	Z+2, r11	; 0x02
     cae:	13 82       	std	Z+3, r1	; 0x03
     cb0:	84 83       	std	Z+4, r24	; 0x04
     cb2:	15 82       	std	Z+5, r1	; 0x05
     cb4:	0e 94 ce 16 	call	0x2d9c	; 0x2d9c <printf>
     cb8:	ed b7       	in	r30, 0x3d	; 61
     cba:	fe b7       	in	r31, 0x3e	; 62
     cbc:	36 96       	adiw	r30, 0x06	; 6
     cbe:	0f b6       	in	r0, 0x3f	; 63
     cc0:	f8 94       	cli
     cc2:	fe bf       	out	0x3e, r31	; 62
     cc4:	0f be       	out	0x3f, r0	; 63
     cc6:	ed bf       	out	0x3d, r30	; 61
     cc8:	0e 15       	cp	r16, r14
     cca:	1f 05       	cpc	r17, r15
     ccc:	e1 f6       	brne	.-72     	; 0xc86 <test_twi_master_get_bytes+0x44>
     cce:	0f 90       	pop	r0
     cd0:	0f 90       	pop	r0
     cd2:	0f 90       	pop	r0
     cd4:	cf 91       	pop	r28
     cd6:	df 91       	pop	r29
     cd8:	1f 91       	pop	r17
     cda:	0f 91       	pop	r16
     cdc:	ff 90       	pop	r15
     cde:	ef 90       	pop	r14
     ce0:	df 90       	pop	r13
     ce2:	cf 90       	pop	r12
     ce4:	bf 90       	pop	r11
     ce6:	08 95       	ret

00000ce8 <test_twi_master_write_and_read_bytes>:
     ce8:	ef 92       	push	r14
     cea:	ff 92       	push	r15
     cec:	0f 93       	push	r16
     cee:	1f 93       	push	r17
     cf0:	cf 93       	push	r28
     cf2:	df 93       	push	r29
     cf4:	89 ed       	ldi	r24, 0xD9	; 217
     cf6:	92 e0       	ldi	r25, 0x02	; 2
     cf8:	0e 94 ea 16 	call	0x2dd4	; 0x2dd4 <puts>
     cfc:	88 e3       	ldi	r24, 0x38	; 56
     cfe:	62 e1       	ldi	r22, 0x12	; 18
     d00:	0e 94 5a 08 	call	0x10b4	; 0x10b4 <twi_master_read_register>
     d04:	00 d0       	rcall	.+0      	; 0xd06 <test_twi_master_write_and_read_bytes+0x1e>
     d06:	00 d0       	rcall	.+0      	; 0xd08 <test_twi_master_write_and_read_bytes+0x20>
     d08:	00 d0       	rcall	.+0      	; 0xd0a <test_twi_master_write_and_read_bytes+0x22>
     d0a:	ed b7       	in	r30, 0x3d	; 61
     d0c:	fe b7       	in	r31, 0x3e	; 62
     d0e:	31 96       	adiw	r30, 0x01	; 1
     d10:	cf eb       	ldi	r28, 0xBF	; 191
     d12:	d2 e0       	ldi	r29, 0x02	; 2
     d14:	ad b7       	in	r26, 0x3d	; 61
     d16:	be b7       	in	r27, 0x3e	; 62
     d18:	12 96       	adiw	r26, 0x02	; 2
     d1a:	dc 93       	st	X, r29
     d1c:	ce 93       	st	-X, r28
     d1e:	11 97       	sbiw	r26, 0x01	; 1
     d20:	02 e1       	ldi	r16, 0x12	; 18
     d22:	10 e0       	ldi	r17, 0x00	; 0
     d24:	13 83       	std	Z+3, r17	; 0x03
     d26:	02 83       	std	Z+2, r16	; 0x02
     d28:	84 83       	std	Z+4, r24	; 0x04
     d2a:	15 82       	std	Z+5, r1	; 0x05
     d2c:	0e 94 ce 16 	call	0x2d9c	; 0x2d9c <printf>
     d30:	8d b7       	in	r24, 0x3d	; 61
     d32:	9e b7       	in	r25, 0x3e	; 62
     d34:	06 96       	adiw	r24, 0x06	; 6
     d36:	0f b6       	in	r0, 0x3f	; 63
     d38:	f8 94       	cli
     d3a:	9e bf       	out	0x3e, r25	; 62
     d3c:	0f be       	out	0x3f, r0	; 63
     d3e:	8d bf       	out	0x3d, r24	; 61
     d40:	88 e3       	ldi	r24, 0x38	; 56
     d42:	63 e1       	ldi	r22, 0x13	; 19
     d44:	0e 94 5a 08 	call	0x10b4	; 0x10b4 <twi_master_read_register>
     d48:	00 d0       	rcall	.+0      	; 0xd4a <test_twi_master_write_and_read_bytes+0x62>
     d4a:	00 d0       	rcall	.+0      	; 0xd4c <test_twi_master_write_and_read_bytes+0x64>
     d4c:	00 d0       	rcall	.+0      	; 0xd4e <test_twi_master_write_and_read_bytes+0x66>
     d4e:	ed b7       	in	r30, 0x3d	; 61
     d50:	fe b7       	in	r31, 0x3e	; 62
     d52:	31 96       	adiw	r30, 0x01	; 1
     d54:	ad b7       	in	r26, 0x3d	; 61
     d56:	be b7       	in	r27, 0x3e	; 62
     d58:	12 96       	adiw	r26, 0x02	; 2
     d5a:	dc 93       	st	X, r29
     d5c:	ce 93       	st	-X, r28
     d5e:	11 97       	sbiw	r26, 0x01	; 1
     d60:	23 e1       	ldi	r18, 0x13	; 19
     d62:	e2 2e       	mov	r14, r18
     d64:	f1 2c       	mov	r15, r1
     d66:	f3 82       	std	Z+3, r15	; 0x03
     d68:	e2 82       	std	Z+2, r14	; 0x02
     d6a:	84 83       	std	Z+4, r24	; 0x04
     d6c:	15 82       	std	Z+5, r1	; 0x05
     d6e:	0e 94 ce 16 	call	0x2d9c	; 0x2d9c <printf>
     d72:	8d b7       	in	r24, 0x3d	; 61
     d74:	9e b7       	in	r25, 0x3e	; 62
     d76:	06 96       	adiw	r24, 0x06	; 6
     d78:	0f b6       	in	r0, 0x3f	; 63
     d7a:	f8 94       	cli
     d7c:	9e bf       	out	0x3e, r25	; 62
     d7e:	0f be       	out	0x3f, r0	; 63
     d80:	8d bf       	out	0x3d, r24	; 61
     d82:	89 ee       	ldi	r24, 0xE9	; 233
     d84:	92 e0       	ldi	r25, 0x02	; 2
     d86:	0e 94 ea 16 	call	0x2dd4	; 0x2dd4 <puts>
     d8a:	88 e3       	ldi	r24, 0x38	; 56
     d8c:	62 e1       	ldi	r22, 0x12	; 18
     d8e:	4a ea       	ldi	r20, 0xAA	; 170
     d90:	0e 94 6d 08 	call	0x10da	; 0x10da <twi_master_write_register>
     d94:	88 e3       	ldi	r24, 0x38	; 56
     d96:	63 e1       	ldi	r22, 0x13	; 19
     d98:	45 e5       	ldi	r20, 0x55	; 85
     d9a:	0e 94 6d 08 	call	0x10da	; 0x10da <twi_master_write_register>
     d9e:	83 e0       	ldi	r24, 0x03	; 3
     da0:	93 e0       	ldi	r25, 0x03	; 3
     da2:	0e 94 ea 16 	call	0x2dd4	; 0x2dd4 <puts>
     da6:	88 e3       	ldi	r24, 0x38	; 56
     da8:	62 e1       	ldi	r22, 0x12	; 18
     daa:	0e 94 5a 08 	call	0x10b4	; 0x10b4 <twi_master_read_register>
     dae:	00 d0       	rcall	.+0      	; 0xdb0 <test_twi_master_write_and_read_bytes+0xc8>
     db0:	00 d0       	rcall	.+0      	; 0xdb2 <test_twi_master_write_and_read_bytes+0xca>
     db2:	00 d0       	rcall	.+0      	; 0xdb4 <test_twi_master_write_and_read_bytes+0xcc>
     db4:	ed b7       	in	r30, 0x3d	; 61
     db6:	fe b7       	in	r31, 0x3e	; 62
     db8:	31 96       	adiw	r30, 0x01	; 1
     dba:	ad b7       	in	r26, 0x3d	; 61
     dbc:	be b7       	in	r27, 0x3e	; 62
     dbe:	12 96       	adiw	r26, 0x02	; 2
     dc0:	dc 93       	st	X, r29
     dc2:	ce 93       	st	-X, r28
     dc4:	11 97       	sbiw	r26, 0x01	; 1
     dc6:	13 83       	std	Z+3, r17	; 0x03
     dc8:	02 83       	std	Z+2, r16	; 0x02
     dca:	84 83       	std	Z+4, r24	; 0x04
     dcc:	15 82       	std	Z+5, r1	; 0x05
     dce:	0e 94 ce 16 	call	0x2d9c	; 0x2d9c <printf>
     dd2:	8d b7       	in	r24, 0x3d	; 61
     dd4:	9e b7       	in	r25, 0x3e	; 62
     dd6:	06 96       	adiw	r24, 0x06	; 6
     dd8:	0f b6       	in	r0, 0x3f	; 63
     dda:	f8 94       	cli
     ddc:	9e bf       	out	0x3e, r25	; 62
     dde:	0f be       	out	0x3f, r0	; 63
     de0:	8d bf       	out	0x3d, r24	; 61
     de2:	88 e3       	ldi	r24, 0x38	; 56
     de4:	63 e1       	ldi	r22, 0x13	; 19
     de6:	0e 94 5a 08 	call	0x10b4	; 0x10b4 <twi_master_read_register>
     dea:	00 d0       	rcall	.+0      	; 0xdec <test_twi_master_write_and_read_bytes+0x104>
     dec:	00 d0       	rcall	.+0      	; 0xdee <test_twi_master_write_and_read_bytes+0x106>
     dee:	00 d0       	rcall	.+0      	; 0xdf0 <test_twi_master_write_and_read_bytes+0x108>
     df0:	ed b7       	in	r30, 0x3d	; 61
     df2:	fe b7       	in	r31, 0x3e	; 62
     df4:	31 96       	adiw	r30, 0x01	; 1
     df6:	ad b7       	in	r26, 0x3d	; 61
     df8:	be b7       	in	r27, 0x3e	; 62
     dfa:	12 96       	adiw	r26, 0x02	; 2
     dfc:	dc 93       	st	X, r29
     dfe:	ce 93       	st	-X, r28
     e00:	11 97       	sbiw	r26, 0x01	; 1
     e02:	f3 82       	std	Z+3, r15	; 0x03
     e04:	e2 82       	std	Z+2, r14	; 0x02
     e06:	84 83       	std	Z+4, r24	; 0x04
     e08:	15 82       	std	Z+5, r1	; 0x05
     e0a:	0e 94 ce 16 	call	0x2d9c	; 0x2d9c <printf>
     e0e:	8d b7       	in	r24, 0x3d	; 61
     e10:	9e b7       	in	r25, 0x3e	; 62
     e12:	06 96       	adiw	r24, 0x06	; 6
     e14:	0f b6       	in	r0, 0x3f	; 63
     e16:	f8 94       	cli
     e18:	9e bf       	out	0x3e, r25	; 62
     e1a:	0f be       	out	0x3f, r0	; 63
     e1c:	8d bf       	out	0x3d, r24	; 61
     e1e:	df 91       	pop	r29
     e20:	cf 91       	pop	r28
     e22:	1f 91       	pop	r17
     e24:	0f 91       	pop	r16
     e26:	ff 90       	pop	r15
     e28:	ef 90       	pop	r14
     e2a:	08 95       	ret

00000e2c <test_twi_master_read_and_write_bits>:
     e2c:	ef 92       	push	r14
     e2e:	ff 92       	push	r15
     e30:	0f 93       	push	r16
     e32:	1f 93       	push	r17
     e34:	df 93       	push	r29
     e36:	cf 93       	push	r28
     e38:	0f 92       	push	r0
     e3a:	cd b7       	in	r28, 0x3d	; 61
     e3c:	de b7       	in	r29, 0x3e	; 62
     e3e:	83 e1       	ldi	r24, 0x13	; 19
     e40:	93 e0       	ldi	r25, 0x03	; 3
     e42:	0e 94 ea 16 	call	0x2dd4	; 0x2dd4 <puts>
     e46:	88 e3       	ldi	r24, 0x38	; 56
     e48:	62 e1       	ldi	r22, 0x12	; 18
     e4a:	40 e0       	ldi	r20, 0x00	; 0
     e4c:	0e 94 6d 08 	call	0x10da	; 0x10da <twi_master_write_register>
     e50:	88 e3       	ldi	r24, 0x38	; 56
     e52:	63 e1       	ldi	r22, 0x13	; 19
     e54:	40 e0       	ldi	r20, 0x00	; 0
     e56:	0e 94 6d 08 	call	0x10da	; 0x10da <twi_master_write_register>
     e5a:	83 e3       	ldi	r24, 0x33	; 51
     e5c:	93 e0       	ldi	r25, 0x03	; 3
     e5e:	0e 94 ea 16 	call	0x2dd4	; 0x2dd4 <puts>
     e62:	30 e0       	ldi	r19, 0x00	; 0
     e64:	4f eb       	ldi	r20, 0xBF	; 191
     e66:	e4 2e       	mov	r14, r20
     e68:	42 e0       	ldi	r20, 0x02	; 2
     e6a:	f4 2e       	mov	r15, r20
     e6c:	02 e1       	ldi	r16, 0x12	; 18
     e6e:	10 e0       	ldi	r17, 0x00	; 0
     e70:	88 e3       	ldi	r24, 0x38	; 56
     e72:	62 e1       	ldi	r22, 0x12	; 18
     e74:	43 2f       	mov	r20, r19
     e76:	21 e0       	ldi	r18, 0x01	; 1
     e78:	39 83       	std	Y+1, r19	; 0x01
     e7a:	0e 94 8c 08 	call	0x1118	; 0x1118 <twi_master_write_register_bit>
     e7e:	88 e3       	ldi	r24, 0x38	; 56
     e80:	62 e1       	ldi	r22, 0x12	; 18
     e82:	0e 94 5a 08 	call	0x10b4	; 0x10b4 <twi_master_read_register>
     e86:	00 d0       	rcall	.+0      	; 0xe88 <test_twi_master_read_and_write_bits+0x5c>
     e88:	00 d0       	rcall	.+0      	; 0xe8a <test_twi_master_read_and_write_bits+0x5e>
     e8a:	00 d0       	rcall	.+0      	; 0xe8c <test_twi_master_read_and_write_bits+0x60>
     e8c:	ed b7       	in	r30, 0x3d	; 61
     e8e:	fe b7       	in	r31, 0x3e	; 62
     e90:	31 96       	adiw	r30, 0x01	; 1
     e92:	ad b7       	in	r26, 0x3d	; 61
     e94:	be b7       	in	r27, 0x3e	; 62
     e96:	12 96       	adiw	r26, 0x02	; 2
     e98:	fc 92       	st	X, r15
     e9a:	ee 92       	st	-X, r14
     e9c:	11 97       	sbiw	r26, 0x01	; 1
     e9e:	13 83       	std	Z+3, r17	; 0x03
     ea0:	02 83       	std	Z+2, r16	; 0x02
     ea2:	84 83       	std	Z+4, r24	; 0x04
     ea4:	15 82       	std	Z+5, r1	; 0x05
     ea6:	0e 94 ce 16 	call	0x2d9c	; 0x2d9c <printf>
     eaa:	39 81       	ldd	r19, Y+1	; 0x01
     eac:	3f 5f       	subi	r19, 0xFF	; 255
     eae:	ed b7       	in	r30, 0x3d	; 61
     eb0:	fe b7       	in	r31, 0x3e	; 62
     eb2:	36 96       	adiw	r30, 0x06	; 6
     eb4:	0f b6       	in	r0, 0x3f	; 63
     eb6:	f8 94       	cli
     eb8:	fe bf       	out	0x3e, r31	; 62
     eba:	0f be       	out	0x3f, r0	; 63
     ebc:	ed bf       	out	0x3d, r30	; 61
     ebe:	38 30       	cpi	r19, 0x08	; 8
     ec0:	b9 f6       	brne	.-82     	; 0xe70 <test_twi_master_read_and_write_bits+0x44>
     ec2:	0f 90       	pop	r0
     ec4:	cf 91       	pop	r28
     ec6:	df 91       	pop	r29
     ec8:	1f 91       	pop	r17
     eca:	0f 91       	pop	r16
     ecc:	ff 90       	pop	r15
     ece:	ef 90       	pop	r14
     ed0:	08 95       	ret

00000ed2 <twi_master_init>:
     ed2:	82 e1       	ldi	r24, 0x12	; 18
     ed4:	80 93 70 00 	sts	0x0070, r24
     ed8:	e1 e7       	ldi	r30, 0x71	; 113
     eda:	f0 e0       	ldi	r31, 0x00	; 0
     edc:	80 81       	ld	r24, Z
     ede:	8c 7f       	andi	r24, 0xFC	; 252
     ee0:	80 83       	st	Z, r24
     ee2:	80 81       	ld	r24, Z
     ee4:	81 60       	ori	r24, 0x01	; 1
     ee6:	80 83       	st	Z, r24
     ee8:	85 e4       	ldi	r24, 0x45	; 69
     eea:	80 93 74 00 	sts	0x0074, r24
     eee:	08 95       	ret

00000ef0 <twi_send_data>:
     ef0:	10 92 10 04 	sts	0x0410, r1
     ef4:	91 e0       	ldi	r25, 0x01	; 1
     ef6:	90 93 0d 04 	sts	0x040D, r25
     efa:	80 93 0e 04 	sts	0x040E, r24
     efe:	60 93 0f 04 	sts	0x040F, r22
     f02:	10 92 0c 04 	sts	0x040C, r1
     f06:	85 ea       	ldi	r24, 0xA5	; 165
     f08:	80 93 74 00 	sts	0x0074, r24
     f0c:	80 91 10 04 	lds	r24, 0x0410
     f10:	88 23       	and	r24, r24
     f12:	e1 f3       	breq	.-8      	; 0xf0c <twi_send_data+0x1c>
     f14:	08 95       	ret

00000f16 <twi_receive_data>:
     f16:	10 92 10 04 	sts	0x0410, r1
     f1a:	10 92 0d 04 	sts	0x040D, r1
     f1e:	80 93 0e 04 	sts	0x040E, r24
     f22:	60 93 0f 04 	sts	0x040F, r22
     f26:	10 92 01 04 	sts	0x0401, r1
     f2a:	85 ea       	ldi	r24, 0xA5	; 165
     f2c:	80 93 74 00 	sts	0x0074, r24
     f30:	80 91 10 04 	lds	r24, 0x0410
     f34:	88 23       	and	r24, r24
     f36:	e1 f3       	breq	.-8      	; 0xf30 <twi_receive_data+0x1a>
     f38:	08 95       	ret

00000f3a <twi_master_set_ready>:
     f3a:	81 e0       	ldi	r24, 0x01	; 1
     f3c:	80 93 10 04 	sts	0x0410, r24
     f40:	08 95       	ret

00000f42 <__vector_33>:
     f42:	1f 92       	push	r1
     f44:	0f 92       	push	r0
     f46:	0f b6       	in	r0, 0x3f	; 63
     f48:	0f 92       	push	r0
     f4a:	11 24       	eor	r1, r1
     f4c:	8f 93       	push	r24
     f4e:	9f 93       	push	r25
     f50:	ef 93       	push	r30
     f52:	ff 93       	push	r31
     f54:	80 91 71 00 	lds	r24, 0x0071
     f58:	90 e0       	ldi	r25, 0x00	; 0
     f5a:	88 7f       	andi	r24, 0xF8	; 248
     f5c:	90 70       	andi	r25, 0x00	; 0
     f5e:	80 33       	cpi	r24, 0x30	; 48
     f60:	91 05       	cpc	r25, r1
     f62:	09 f4       	brne	.+2      	; 0xf66 <__vector_33+0x24>
     f64:	98 c0       	rjmp	.+304    	; 0x1096 <__vector_33+0x154>
     f66:	81 33       	cpi	r24, 0x31	; 49
     f68:	91 05       	cpc	r25, r1
     f6a:	cc f4       	brge	.+50     	; 0xf9e <__vector_33+0x5c>
     f6c:	80 31       	cpi	r24, 0x10	; 16
     f6e:	91 05       	cpc	r25, r1
     f70:	99 f1       	breq	.+102    	; 0xfd8 <__vector_33+0x96>
     f72:	81 31       	cpi	r24, 0x11	; 17
     f74:	91 05       	cpc	r25, r1
     f76:	44 f4       	brge	.+16     	; 0xf88 <__vector_33+0x46>
     f78:	00 97       	sbiw	r24, 0x00	; 0
     f7a:	09 f4       	brne	.+2      	; 0xf7e <__vector_33+0x3c>
     f7c:	8a c0       	rjmp	.+276    	; 0x1092 <__vector_33+0x150>
     f7e:	88 30       	cpi	r24, 0x08	; 8
     f80:	91 05       	cpc	r25, r1
     f82:	09 f0       	breq	.+2      	; 0xf86 <__vector_33+0x44>
     f84:	88 c0       	rjmp	.+272    	; 0x1096 <__vector_33+0x154>
     f86:	28 c0       	rjmp	.+80     	; 0xfd8 <__vector_33+0x96>
     f88:	80 32       	cpi	r24, 0x20	; 32
     f8a:	91 05       	cpc	r25, r1
     f8c:	a1 f1       	breq	.+104    	; 0xff6 <__vector_33+0xb4>
     f8e:	88 32       	cpi	r24, 0x28	; 40
     f90:	91 05       	cpc	r25, r1
     f92:	b9 f1       	breq	.+110    	; 0x1002 <__vector_33+0xc0>
     f94:	88 31       	cpi	r24, 0x18	; 24
     f96:	91 05       	cpc	r25, r1
     f98:	09 f0       	breq	.+2      	; 0xf9c <__vector_33+0x5a>
     f9a:	7d c0       	rjmp	.+250    	; 0x1096 <__vector_33+0x154>
     f9c:	32 c0       	rjmp	.+100    	; 0x1002 <__vector_33+0xc0>
     f9e:	88 34       	cpi	r24, 0x48	; 72
     fa0:	91 05       	cpc	r25, r1
     fa2:	09 f4       	brne	.+2      	; 0xfa6 <__vector_33+0x64>
     fa4:	50 c0       	rjmp	.+160    	; 0x1046 <__vector_33+0x104>
     fa6:	89 34       	cpi	r24, 0x49	; 73
     fa8:	91 05       	cpc	r25, r1
     faa:	4c f4       	brge	.+18     	; 0xfbe <__vector_33+0x7c>
     fac:	88 33       	cpi	r24, 0x38	; 56
     fae:	91 05       	cpc	r25, r1
     fb0:	09 f4       	brne	.+2      	; 0xfb4 <__vector_33+0x72>
     fb2:	42 c0       	rjmp	.+132    	; 0x1038 <__vector_33+0xf6>
     fb4:	80 34       	cpi	r24, 0x40	; 64
     fb6:	91 05       	cpc	r25, r1
     fb8:	09 f0       	breq	.+2      	; 0xfbc <__vector_33+0x7a>
     fba:	6d c0       	rjmp	.+218    	; 0x1096 <__vector_33+0x154>
     fbc:	3f c0       	rjmp	.+126    	; 0x103c <__vector_33+0xfa>
     fbe:	88 35       	cpi	r24, 0x58	; 88
     fc0:	91 05       	cpc	r25, r1
     fc2:	09 f4       	brne	.+2      	; 0xfc6 <__vector_33+0x84>
     fc4:	5e c0       	rjmp	.+188    	; 0x1082 <__vector_33+0x140>
     fc6:	88 3f       	cpi	r24, 0xF8	; 248
     fc8:	91 05       	cpc	r25, r1
     fca:	09 f4       	brne	.+2      	; 0xfce <__vector_33+0x8c>
     fcc:	6a c0       	rjmp	.+212    	; 0x10a2 <__vector_33+0x160>
     fce:	80 35       	cpi	r24, 0x50	; 80
     fd0:	91 05       	cpc	r25, r1
     fd2:	09 f0       	breq	.+2      	; 0xfd6 <__vector_33+0x94>
     fd4:	60 c0       	rjmp	.+192    	; 0x1096 <__vector_33+0x154>
     fd6:	39 c0       	rjmp	.+114    	; 0x104a <__vector_33+0x108>
     fd8:	80 91 0d 04 	lds	r24, 0x040D
     fdc:	88 23       	and	r24, r24
     fde:	21 f0       	breq	.+8      	; 0xfe8 <__vector_33+0xa6>
     fe0:	80 91 0e 04 	lds	r24, 0x040E
     fe4:	88 0f       	add	r24, r24
     fe6:	04 c0       	rjmp	.+8      	; 0xff0 <__vector_33+0xae>
     fe8:	80 91 0e 04 	lds	r24, 0x040E
     fec:	88 0f       	add	r24, r24
     fee:	81 60       	ori	r24, 0x01	; 1
     ff0:	80 93 73 00 	sts	0x0073, r24
     ff4:	40 c0       	rjmp	.+128    	; 0x1076 <__vector_33+0x134>
     ff6:	80 91 0f 04 	lds	r24, 0x040F
     ffa:	88 23       	and	r24, r24
     ffc:	09 f4       	brne	.+2      	; 0x1000 <__vector_33+0xbe>
     ffe:	49 c0       	rjmp	.+146    	; 0x1092 <__vector_33+0x150>
    1000:	22 c0       	rjmp	.+68     	; 0x1046 <__vector_33+0x104>
    1002:	80 91 0f 04 	lds	r24, 0x040F
    1006:	88 23       	and	r24, r24
    1008:	09 f4       	brne	.+2      	; 0x100c <__vector_33+0xca>
    100a:	43 c0       	rjmp	.+134    	; 0x1092 <__vector_33+0x150>
    100c:	e0 91 0c 04 	lds	r30, 0x040C
    1010:	f0 e0       	ldi	r31, 0x00	; 0
    1012:	ef 5e       	subi	r30, 0xEF	; 239
    1014:	fb 4f       	sbci	r31, 0xFB	; 251
    1016:	80 81       	ld	r24, Z
    1018:	80 93 73 00 	sts	0x0073, r24
    101c:	85 e8       	ldi	r24, 0x85	; 133
    101e:	80 93 74 00 	sts	0x0074, r24
    1022:	80 91 0f 04 	lds	r24, 0x040F
    1026:	81 50       	subi	r24, 0x01	; 1
    1028:	80 93 0f 04 	sts	0x040F, r24
    102c:	80 91 0c 04 	lds	r24, 0x040C
    1030:	8f 5f       	subi	r24, 0xFF	; 255
    1032:	80 93 0c 04 	sts	0x040C, r24
    1036:	35 c0       	rjmp	.+106    	; 0x10a2 <__vector_33+0x160>
    1038:	85 ee       	ldi	r24, 0xE5	; 229
    103a:	20 c0       	rjmp	.+64     	; 0x107c <__vector_33+0x13a>
    103c:	80 91 0f 04 	lds	r24, 0x040F
    1040:	82 30       	cpi	r24, 0x02	; 2
    1042:	d8 f4       	brcc	.+54     	; 0x107a <__vector_33+0x138>
    1044:	18 c0       	rjmp	.+48     	; 0x1076 <__vector_33+0x134>
    1046:	85 ea       	ldi	r24, 0xA5	; 165
    1048:	19 c0       	rjmp	.+50     	; 0x107c <__vector_33+0x13a>
    104a:	e0 91 01 04 	lds	r30, 0x0401
    104e:	f0 e0       	ldi	r31, 0x00	; 0
    1050:	80 91 73 00 	lds	r24, 0x0073
    1054:	ee 5f       	subi	r30, 0xFE	; 254
    1056:	fb 4f       	sbci	r31, 0xFB	; 251
    1058:	80 83       	st	Z, r24
    105a:	80 91 0f 04 	lds	r24, 0x040F
    105e:	81 50       	subi	r24, 0x01	; 1
    1060:	80 93 0f 04 	sts	0x040F, r24
    1064:	80 91 01 04 	lds	r24, 0x0401
    1068:	8f 5f       	subi	r24, 0xFF	; 255
    106a:	80 93 01 04 	sts	0x0401, r24
    106e:	80 91 0f 04 	lds	r24, 0x040F
    1072:	81 30       	cpi	r24, 0x01	; 1
    1074:	11 f4       	brne	.+4      	; 0x107a <__vector_33+0x138>
    1076:	85 e8       	ldi	r24, 0x85	; 133
    1078:	01 c0       	rjmp	.+2      	; 0x107c <__vector_33+0x13a>
    107a:	85 ec       	ldi	r24, 0xC5	; 197
    107c:	80 93 74 00 	sts	0x0074, r24
    1080:	10 c0       	rjmp	.+32     	; 0x10a2 <__vector_33+0x160>
    1082:	e0 91 01 04 	lds	r30, 0x0401
    1086:	f0 e0       	ldi	r31, 0x00	; 0
    1088:	80 91 73 00 	lds	r24, 0x0073
    108c:	ee 5f       	subi	r30, 0xFE	; 254
    108e:	fb 4f       	sbci	r31, 0xFB	; 251
    1090:	80 83       	st	Z, r24
    1092:	85 e9       	ldi	r24, 0x95	; 149
    1094:	01 c0       	rjmp	.+2      	; 0x1098 <__vector_33+0x156>
    1096:	85 ed       	ldi	r24, 0xD5	; 213
    1098:	80 93 74 00 	sts	0x0074, r24
    109c:	81 e0       	ldi	r24, 0x01	; 1
    109e:	80 93 10 04 	sts	0x0410, r24
    10a2:	ff 91       	pop	r31
    10a4:	ef 91       	pop	r30
    10a6:	9f 91       	pop	r25
    10a8:	8f 91       	pop	r24
    10aa:	0f 90       	pop	r0
    10ac:	0f be       	out	0x3f, r0	; 63
    10ae:	0f 90       	pop	r0
    10b0:	1f 90       	pop	r1
    10b2:	18 95       	reti

000010b4 <twi_master_read_register>:
    10b4:	1f 93       	push	r17
    10b6:	18 2f       	mov	r17, r24
    10b8:	60 93 11 04 	sts	0x0411, r22
    10bc:	81 e0       	ldi	r24, 0x01	; 1
    10be:	80 93 10 04 	sts	0x0410, r24
    10c2:	81 2f       	mov	r24, r17
    10c4:	61 e0       	ldi	r22, 0x01	; 1
    10c6:	0e 94 78 07 	call	0xef0	; 0xef0 <twi_send_data>
    10ca:	81 2f       	mov	r24, r17
    10cc:	61 e0       	ldi	r22, 0x01	; 1
    10ce:	0e 94 8b 07 	call	0xf16	; 0xf16 <twi_receive_data>
    10d2:	80 91 02 04 	lds	r24, 0x0402
    10d6:	1f 91       	pop	r17
    10d8:	08 95       	ret

000010da <twi_master_write_register>:
    10da:	60 93 11 04 	sts	0x0411, r22
    10de:	40 93 12 04 	sts	0x0412, r20
    10e2:	91 e0       	ldi	r25, 0x01	; 1
    10e4:	90 93 10 04 	sts	0x0410, r25
    10e8:	62 e0       	ldi	r22, 0x02	; 2
    10ea:	0e 94 78 07 	call	0xef0	; 0xef0 <twi_send_data>
    10ee:	08 95       	ret

000010f0 <twi_master_read_register_bit>:
    10f0:	df 93       	push	r29
    10f2:	cf 93       	push	r28
    10f4:	0f 92       	push	r0
    10f6:	cd b7       	in	r28, 0x3d	; 61
    10f8:	de b7       	in	r29, 0x3e	; 62
    10fa:	49 83       	std	Y+1, r20	; 0x01
    10fc:	0e 94 5a 08 	call	0x10b4	; 0x10b4 <twi_master_read_register>
    1100:	90 e0       	ldi	r25, 0x00	; 0
    1102:	49 81       	ldd	r20, Y+1	; 0x01
    1104:	02 c0       	rjmp	.+4      	; 0x110a <__stack+0xb>
    1106:	95 95       	asr	r25
    1108:	87 95       	ror	r24
    110a:	4a 95       	dec	r20
    110c:	e2 f7       	brpl	.-8      	; 0x1106 <__stack+0x7>
    110e:	81 70       	andi	r24, 0x01	; 1
    1110:	0f 90       	pop	r0
    1112:	cf 91       	pop	r28
    1114:	df 91       	pop	r29
    1116:	08 95       	ret

00001118 <twi_master_write_register_bit>:
    1118:	0f 93       	push	r16
    111a:	1f 93       	push	r17
    111c:	df 93       	push	r29
    111e:	cf 93       	push	r28
    1120:	00 d0       	rcall	.+0      	; 0x1122 <twi_master_write_register_bit+0xa>
    1122:	cd b7       	in	r28, 0x3d	; 61
    1124:	de b7       	in	r29, 0x3e	; 62
    1126:	08 2f       	mov	r16, r24
    1128:	16 2f       	mov	r17, r22
    112a:	2a 83       	std	Y+2, r18	; 0x02
    112c:	49 83       	std	Y+1, r20	; 0x01
    112e:	0e 94 5a 08 	call	0x10b4	; 0x10b4 <twi_master_read_register>
    1132:	e1 e0       	ldi	r30, 0x01	; 1
    1134:	f0 e0       	ldi	r31, 0x00	; 0
    1136:	49 81       	ldd	r20, Y+1	; 0x01
    1138:	02 c0       	rjmp	.+4      	; 0x113e <twi_master_write_register_bit+0x26>
    113a:	ee 0f       	add	r30, r30
    113c:	ff 1f       	adc	r31, r31
    113e:	4a 95       	dec	r20
    1140:	e2 f7       	brpl	.-8      	; 0x113a <twi_master_write_register_bit+0x22>
    1142:	4e 2f       	mov	r20, r30
    1144:	40 95       	com	r20
    1146:	48 23       	and	r20, r24
    1148:	2a 81       	ldd	r18, Y+2	; 0x02
    114a:	21 11       	cpse	r18, r1
    114c:	4e 2b       	or	r20, r30
    114e:	80 2f       	mov	r24, r16
    1150:	61 2f       	mov	r22, r17
    1152:	0e 94 6d 08 	call	0x10da	; 0x10da <twi_master_write_register>
    1156:	0f 90       	pop	r0
    1158:	0f 90       	pop	r0
    115a:	cf 91       	pop	r28
    115c:	df 91       	pop	r29
    115e:	1f 91       	pop	r17
    1160:	0f 91       	pop	r16
    1162:	08 95       	ret

00001164 <uart_putchar>:
    1164:	1f 93       	push	r17
    1166:	18 2f       	mov	r17, r24
    1168:	87 30       	cpi	r24, 0x07	; 7
    116a:	41 f0       	breq	.+16     	; 0x117c <uart_putchar+0x18>
    116c:	8a 30       	cpi	r24, 0x0A	; 10
    116e:	19 f4       	brne	.+6      	; 0x1176 <uart_putchar+0x12>
    1170:	8d e0       	ldi	r24, 0x0D	; 13
    1172:	0e 94 b2 08 	call	0x1164	; 0x1164 <uart_putchar>
    1176:	5d 9b       	sbis	0x0b, 5	; 11
    1178:	fe cf       	rjmp	.-4      	; 0x1176 <uart_putchar+0x12>
    117a:	1c b9       	out	0x0c, r17	; 12
    117c:	80 e0       	ldi	r24, 0x00	; 0
    117e:	90 e0       	ldi	r25, 0x00	; 0
    1180:	1f 91       	pop	r17
    1182:	08 95       	ret

00001184 <uart_getchar>:
    1184:	ef 92       	push	r14
    1186:	ff 92       	push	r15
    1188:	0f 93       	push	r16
    118a:	1f 93       	push	r17
    118c:	cf 93       	push	r28
    118e:	df 93       	push	r29
    1190:	ec 01       	movw	r28, r24
    1192:	80 91 5e 03 	lds	r24, 0x035E
    1196:	90 91 5f 03 	lds	r25, 0x035F
    119a:	00 97       	sbiw	r24, 0x00	; 0
    119c:	09 f0       	breq	.+2      	; 0x11a0 <uart_getchar+0x1c>
    119e:	99 c0       	rjmp	.+306    	; 0x12d2 <uart_getchar+0x14e>
    11a0:	00 e6       	ldi	r16, 0x60	; 96
    11a2:	13 e0       	ldi	r17, 0x03	; 3
    11a4:	5f 9b       	sbis	0x0b, 7	; 11
    11a6:	fe cf       	rjmp	.-4      	; 0x11a4 <uart_getchar+0x20>
    11a8:	5c 99       	sbic	0x0b, 4	; 11
    11aa:	a4 c0       	rjmp	.+328    	; 0x12f4 <uart_getchar+0x170>
    11ac:	5b 99       	sbic	0x0b, 3	; 11
    11ae:	a5 c0       	rjmp	.+330    	; 0x12fa <uart_getchar+0x176>
    11b0:	8c b1       	in	r24, 0x0c	; 12
    11b2:	8d 30       	cpi	r24, 0x0D	; 13
    11b4:	11 f0       	breq	.+4      	; 0x11ba <uart_getchar+0x36>
    11b6:	8a 30       	cpi	r24, 0x0A	; 10
    11b8:	69 f4       	brne	.+26     	; 0x11d4 <uart_getchar+0x50>
    11ba:	8a e0       	ldi	r24, 0x0A	; 10
    11bc:	f8 01       	movw	r30, r16
    11be:	80 83       	st	Z, r24
    11c0:	be 01       	movw	r22, r28
    11c2:	0e 94 b2 08 	call	0x1164	; 0x1164 <uart_putchar>
    11c6:	80 e6       	ldi	r24, 0x60	; 96
    11c8:	93 e0       	ldi	r25, 0x03	; 3
    11ca:	90 93 5f 03 	sts	0x035F, r25
    11ce:	80 93 5e 03 	sts	0x035E, r24
    11d2:	7f c0       	rjmp	.+254    	; 0x12d2 <uart_getchar+0x14e>
    11d4:	89 30       	cpi	r24, 0x09	; 9
    11d6:	09 f4       	brne	.+2      	; 0x11da <uart_getchar+0x56>
    11d8:	80 e2       	ldi	r24, 0x20	; 32
    11da:	98 2f       	mov	r25, r24
    11dc:	90 52       	subi	r25, 0x20	; 32
    11de:	9f 35       	cpi	r25, 0x5F	; 95
    11e0:	10 f0       	brcs	.+4      	; 0x11e6 <uart_getchar+0x62>
    11e2:	80 3a       	cpi	r24, 0xA0	; 160
    11e4:	68 f0       	brcs	.+26     	; 0x1200 <uart_getchar+0x7c>
    11e6:	f3 e0       	ldi	r31, 0x03	; 3
    11e8:	0f 3a       	cpi	r16, 0xAF	; 175
    11ea:	1f 07       	cpc	r17, r31
    11ec:	11 f4       	brne	.+4      	; 0x11f2 <uart_getchar+0x6e>
    11ee:	87 e0       	ldi	r24, 0x07	; 7
    11f0:	03 c0       	rjmp	.+6      	; 0x11f8 <uart_getchar+0x74>
    11f2:	f8 01       	movw	r30, r16
    11f4:	81 93       	st	Z+, r24
    11f6:	8f 01       	movw	r16, r30
    11f8:	be 01       	movw	r22, r28
    11fa:	0e 94 b2 08 	call	0x1164	; 0x1164 <uart_putchar>
    11fe:	d2 cf       	rjmp	.-92     	; 0x11a4 <uart_getchar+0x20>
    1200:	82 31       	cpi	r24, 0x12	; 18
    1202:	31 f1       	breq	.+76     	; 0x1250 <uart_getchar+0xcc>
    1204:	83 31       	cpi	r24, 0x13	; 19
    1206:	30 f4       	brcc	.+12     	; 0x1214 <uart_getchar+0x90>
    1208:	83 30       	cpi	r24, 0x03	; 3
    120a:	09 f4       	brne	.+2      	; 0x120e <uart_getchar+0x8a>
    120c:	76 c0       	rjmp	.+236    	; 0x12fa <uart_getchar+0x176>
    120e:	88 30       	cpi	r24, 0x08	; 8
    1210:	49 f6       	brne	.-110    	; 0x11a4 <uart_getchar+0x20>
    1212:	09 c0       	rjmp	.+18     	; 0x1226 <uart_getchar+0xa2>
    1214:	87 31       	cpi	r24, 0x17	; 23
    1216:	29 f0       	breq	.+10     	; 0x1222 <uart_getchar+0x9e>
    1218:	8f 37       	cpi	r24, 0x7F	; 127
    121a:	29 f0       	breq	.+10     	; 0x1226 <uart_getchar+0xa2>
    121c:	85 31       	cpi	r24, 0x15	; 21
    121e:	11 f6       	brne	.-124    	; 0x11a4 <uart_getchar+0x20>
    1220:	38 c0       	rjmp	.+112    	; 0x1292 <uart_getchar+0x10e>
    1222:	78 01       	movw	r14, r16
    1224:	48 c0       	rjmp	.+144    	; 0x12b6 <uart_getchar+0x132>
    1226:	f3 e0       	ldi	r31, 0x03	; 3
    1228:	00 36       	cpi	r16, 0x60	; 96
    122a:	1f 07       	cpc	r17, r31
    122c:	09 f0       	breq	.+2      	; 0x1230 <uart_getchar+0xac>
    122e:	08 f4       	brcc	.+2      	; 0x1232 <uart_getchar+0xae>
    1230:	b9 cf       	rjmp	.-142    	; 0x11a4 <uart_getchar+0x20>
    1232:	88 e0       	ldi	r24, 0x08	; 8
    1234:	be 01       	movw	r22, r28
    1236:	0e 94 b2 08 	call	0x1164	; 0x1164 <uart_putchar>
    123a:	80 e2       	ldi	r24, 0x20	; 32
    123c:	be 01       	movw	r22, r28
    123e:	0e 94 b2 08 	call	0x1164	; 0x1164 <uart_putchar>
    1242:	88 e0       	ldi	r24, 0x08	; 8
    1244:	be 01       	movw	r22, r28
    1246:	0e 94 b2 08 	call	0x1164	; 0x1164 <uart_putchar>
    124a:	01 50       	subi	r16, 0x01	; 1
    124c:	10 40       	sbci	r17, 0x00	; 0
    124e:	aa cf       	rjmp	.-172    	; 0x11a4 <uart_getchar+0x20>
    1250:	8d e0       	ldi	r24, 0x0D	; 13
    1252:	be 01       	movw	r22, r28
    1254:	0e 94 b2 08 	call	0x1164	; 0x1164 <uart_putchar>
    1258:	80 e6       	ldi	r24, 0x60	; 96
    125a:	e8 2e       	mov	r14, r24
    125c:	83 e0       	ldi	r24, 0x03	; 3
    125e:	f8 2e       	mov	r15, r24
    1260:	06 c0       	rjmp	.+12     	; 0x126e <uart_getchar+0xea>
    1262:	f7 01       	movw	r30, r14
    1264:	81 91       	ld	r24, Z+
    1266:	7f 01       	movw	r14, r30
    1268:	be 01       	movw	r22, r28
    126a:	0e 94 b2 08 	call	0x1164	; 0x1164 <uart_putchar>
    126e:	e0 16       	cp	r14, r16
    1270:	f1 06       	cpc	r15, r17
    1272:	b8 f3       	brcs	.-18     	; 0x1262 <uart_getchar+0xde>
    1274:	97 cf       	rjmp	.-210    	; 0x11a4 <uart_getchar+0x20>
    1276:	88 e0       	ldi	r24, 0x08	; 8
    1278:	be 01       	movw	r22, r28
    127a:	0e 94 b2 08 	call	0x1164	; 0x1164 <uart_putchar>
    127e:	80 e2       	ldi	r24, 0x20	; 32
    1280:	be 01       	movw	r22, r28
    1282:	0e 94 b2 08 	call	0x1164	; 0x1164 <uart_putchar>
    1286:	88 e0       	ldi	r24, 0x08	; 8
    1288:	be 01       	movw	r22, r28
    128a:	0e 94 b2 08 	call	0x1164	; 0x1164 <uart_putchar>
    128e:	01 50       	subi	r16, 0x01	; 1
    1290:	10 40       	sbci	r17, 0x00	; 0
    1292:	f3 e0       	ldi	r31, 0x03	; 3
    1294:	00 36       	cpi	r16, 0x60	; 96
    1296:	1f 07       	cpc	r17, r31
    1298:	09 f0       	breq	.+2      	; 0x129c <uart_getchar+0x118>
    129a:	68 f7       	brcc	.-38     	; 0x1276 <uart_getchar+0xf2>
    129c:	83 cf       	rjmp	.-250    	; 0x11a4 <uart_getchar+0x20>
    129e:	88 e0       	ldi	r24, 0x08	; 8
    12a0:	be 01       	movw	r22, r28
    12a2:	0e 94 b2 08 	call	0x1164	; 0x1164 <uart_putchar>
    12a6:	80 e2       	ldi	r24, 0x20	; 32
    12a8:	be 01       	movw	r22, r28
    12aa:	0e 94 b2 08 	call	0x1164	; 0x1164 <uart_putchar>
    12ae:	88 e0       	ldi	r24, 0x08	; 8
    12b0:	be 01       	movw	r22, r28
    12b2:	0e 94 b2 08 	call	0x1164	; 0x1164 <uart_putchar>
    12b6:	87 01       	movw	r16, r14
    12b8:	80 e6       	ldi	r24, 0x60	; 96
    12ba:	e8 16       	cp	r14, r24
    12bc:	83 e0       	ldi	r24, 0x03	; 3
    12be:	f8 06       	cpc	r15, r24
    12c0:	09 f0       	breq	.+2      	; 0x12c4 <uart_getchar+0x140>
    12c2:	08 f4       	brcc	.+2      	; 0x12c6 <uart_getchar+0x142>
    12c4:	6f cf       	rjmp	.-290    	; 0x11a4 <uart_getchar+0x20>
    12c6:	f7 01       	movw	r30, r14
    12c8:	82 91       	ld	r24, -Z
    12ca:	7f 01       	movw	r14, r30
    12cc:	80 32       	cpi	r24, 0x20	; 32
    12ce:	39 f7       	brne	.-50     	; 0x129e <uart_getchar+0x11a>
    12d0:	69 cf       	rjmp	.-302    	; 0x11a4 <uart_getchar+0x20>
    12d2:	e0 91 5e 03 	lds	r30, 0x035E
    12d6:	f0 91 5f 03 	lds	r31, 0x035F
    12da:	21 91       	ld	r18, Z+
    12dc:	f0 93 5f 03 	sts	0x035F, r31
    12e0:	e0 93 5e 03 	sts	0x035E, r30
    12e4:	2a 30       	cpi	r18, 0x0A	; 10
    12e6:	21 f4       	brne	.+8      	; 0x12f0 <uart_getchar+0x16c>
    12e8:	10 92 5f 03 	sts	0x035F, r1
    12ec:	10 92 5e 03 	sts	0x035E, r1
    12f0:	30 e0       	ldi	r19, 0x00	; 0
    12f2:	05 c0       	rjmp	.+10     	; 0x12fe <uart_getchar+0x17a>
    12f4:	2e ef       	ldi	r18, 0xFE	; 254
    12f6:	3f ef       	ldi	r19, 0xFF	; 255
    12f8:	02 c0       	rjmp	.+4      	; 0x12fe <uart_getchar+0x17a>
    12fa:	2f ef       	ldi	r18, 0xFF	; 255
    12fc:	3f ef       	ldi	r19, 0xFF	; 255
    12fe:	c9 01       	movw	r24, r18
    1300:	df 91       	pop	r29
    1302:	cf 91       	pop	r28
    1304:	1f 91       	pop	r17
    1306:	0f 91       	pop	r16
    1308:	ff 90       	pop	r15
    130a:	ef 90       	pop	r14
    130c:	08 95       	ret

0000130e <UART_char_received>:
    130e:	8b b1       	in	r24, 0x0b	; 11
    1310:	88 1f       	adc	r24, r24
    1312:	88 27       	eor	r24, r24
    1314:	88 1f       	adc	r24, r24
    1316:	08 95       	ret

00001318 <UART_clr_rx_buf>:
    1318:	01 c0       	rjmp	.+2      	; 0x131c <UART_clr_rx_buf+0x4>
    131a:	8c b1       	in	r24, 0x0c	; 12
    131c:	5f 99       	sbic	0x0b, 7	; 11
    131e:	fd cf       	rjmp	.-6      	; 0x131a <UART_clr_rx_buf+0x2>
    1320:	08 95       	ret

00001322 <UART_init>:
    1322:	9b 01       	movw	r18, r22
    1324:	ac 01       	movw	r20, r24
    1326:	94 e0       	ldi	r25, 0x04	; 4
    1328:	22 0f       	add	r18, r18
    132a:	33 1f       	adc	r19, r19
    132c:	44 1f       	adc	r20, r20
    132e:	55 1f       	adc	r21, r21
    1330:	9a 95       	dec	r25
    1332:	d1 f7       	brne	.-12     	; 0x1328 <UART_init+0x6>
    1334:	60 e0       	ldi	r22, 0x00	; 0
    1336:	74 e2       	ldi	r23, 0x24	; 36
    1338:	84 ef       	ldi	r24, 0xF4	; 244
    133a:	90 e0       	ldi	r25, 0x00	; 0
    133c:	0e 94 2c 15 	call	0x2a58	; 0x2a58 <__udivmodsi4>
    1340:	21 50       	subi	r18, 0x01	; 1
    1342:	29 b9       	out	0x09, r18	; 9
    1344:	88 e1       	ldi	r24, 0x18	; 24
    1346:	8a b9       	out	0x0a, r24	; 10
    1348:	81 e4       	ldi	r24, 0x41	; 65
    134a:	93 e0       	ldi	r25, 0x03	; 3
    134c:	90 93 1c 04 	sts	0x041C, r25
    1350:	80 93 1b 04 	sts	0x041B, r24
    1354:	90 93 1e 04 	sts	0x041E, r25
    1358:	80 93 1d 04 	sts	0x041D, r24
    135c:	8f e4       	ldi	r24, 0x4F	; 79
    135e:	93 e0       	ldi	r25, 0x03	; 3
    1360:	90 93 20 04 	sts	0x0420, r25
    1364:	80 93 1f 04 	sts	0x041F, r24
    1368:	08 95       	ret

0000136a <acceleration_get_current_acceleration>:
    136a:	0f 93       	push	r16
    136c:	1f 93       	push	r17
    136e:	df 93       	push	r29
    1370:	cf 93       	push	r28
    1372:	00 d0       	rcall	.+0      	; 0x1374 <acceleration_get_current_acceleration+0xa>
    1374:	00 d0       	rcall	.+0      	; 0x1376 <acceleration_get_current_acceleration+0xc>
    1376:	00 d0       	rcall	.+0      	; 0x1378 <acceleration_get_current_acceleration+0xe>
    1378:	cd b7       	in	r28, 0x3d	; 61
    137a:	de b7       	in	r29, 0x3e	; 62
    137c:	8c 01       	movw	r16, r24
    137e:	ce 01       	movw	r24, r28
    1380:	01 96       	adiw	r24, 0x01	; 1
    1382:	0e 94 79 0a 	call	0x14f2	; 0x14f2 <bma020_read_raw_acceleration>
    1386:	60 91 b0 03 	lds	r22, 0x03B0
    138a:	70 91 b1 03 	lds	r23, 0x03B1
    138e:	89 81       	ldd	r24, Y+1	; 0x01
    1390:	9a 81       	ldd	r25, Y+2	; 0x02
    1392:	68 0f       	add	r22, r24
    1394:	79 1f       	adc	r23, r25
    1396:	7a 83       	std	Y+2, r23	; 0x02
    1398:	69 83       	std	Y+1, r22	; 0x01
    139a:	8b 81       	ldd	r24, Y+3	; 0x03
    139c:	9c 81       	ldd	r25, Y+4	; 0x04
    139e:	20 91 b2 03 	lds	r18, 0x03B2
    13a2:	30 91 b3 03 	lds	r19, 0x03B3
    13a6:	82 0f       	add	r24, r18
    13a8:	93 1f       	adc	r25, r19
    13aa:	9c 83       	std	Y+4, r25	; 0x04
    13ac:	8b 83       	std	Y+3, r24	; 0x03
    13ae:	8d 81       	ldd	r24, Y+5	; 0x05
    13b0:	9e 81       	ldd	r25, Y+6	; 0x06
    13b2:	20 91 b4 03 	lds	r18, 0x03B4
    13b6:	30 91 b5 03 	lds	r19, 0x03B5
    13ba:	82 0f       	add	r24, r18
    13bc:	93 1f       	adc	r25, r19
    13be:	9e 83       	std	Y+6, r25	; 0x06
    13c0:	8d 83       	std	Y+5, r24	; 0x05
    13c2:	86 eb       	ldi	r24, 0xB6	; 182
    13c4:	93 e0       	ldi	r25, 0x03	; 3
    13c6:	0e 94 07 0f 	call	0x1e0e	; 0x1e0e <moving_average_simple_put_element>
    13ca:	6b 81       	ldd	r22, Y+3	; 0x03
    13cc:	7c 81       	ldd	r23, Y+4	; 0x04
    13ce:	8d ec       	ldi	r24, 0xCD	; 205
    13d0:	93 e0       	ldi	r25, 0x03	; 3
    13d2:	0e 94 07 0f 	call	0x1e0e	; 0x1e0e <moving_average_simple_put_element>
    13d6:	6d 81       	ldd	r22, Y+5	; 0x05
    13d8:	7e 81       	ldd	r23, Y+6	; 0x06
    13da:	84 ee       	ldi	r24, 0xE4	; 228
    13dc:	93 e0       	ldi	r25, 0x03	; 3
    13de:	0e 94 07 0f 	call	0x1e0e	; 0x1e0e <moving_average_simple_put_element>
    13e2:	80 91 cb 03 	lds	r24, 0x03CB
    13e6:	90 91 cc 03 	lds	r25, 0x03CC
    13ea:	f8 01       	movw	r30, r16
    13ec:	91 83       	std	Z+1, r25	; 0x01
    13ee:	80 83       	st	Z, r24
    13f0:	80 91 e2 03 	lds	r24, 0x03E2
    13f4:	90 91 e3 03 	lds	r25, 0x03E3
    13f8:	93 83       	std	Z+3, r25	; 0x03
    13fa:	82 83       	std	Z+2, r24	; 0x02
    13fc:	80 91 f9 03 	lds	r24, 0x03F9
    1400:	90 91 fa 03 	lds	r25, 0x03FA
    1404:	95 83       	std	Z+5, r25	; 0x05
    1406:	84 83       	std	Z+4, r24	; 0x04
    1408:	26 96       	adiw	r28, 0x06	; 6
    140a:	0f b6       	in	r0, 0x3f	; 63
    140c:	f8 94       	cli
    140e:	de bf       	out	0x3e, r29	; 62
    1410:	0f be       	out	0x3f, r0	; 63
    1412:	cd bf       	out	0x3d, r28	; 61
    1414:	cf 91       	pop	r28
    1416:	df 91       	pop	r29
    1418:	1f 91       	pop	r17
    141a:	0f 91       	pop	r16
    141c:	08 95       	ret

0000141e <acceleration_calibrate_offset>:
    141e:	df 93       	push	r29
    1420:	cf 93       	push	r28
    1422:	00 d0       	rcall	.+0      	; 0x1424 <acceleration_calibrate_offset+0x6>
    1424:	00 d0       	rcall	.+0      	; 0x1426 <acceleration_calibrate_offset+0x8>
    1426:	00 d0       	rcall	.+0      	; 0x1428 <acceleration_calibrate_offset+0xa>
    1428:	cd b7       	in	r28, 0x3d	; 61
    142a:	de b7       	in	r29, 0x3e	; 62
    142c:	ce 01       	movw	r24, r28
    142e:	01 96       	adiw	r24, 0x01	; 1
    1430:	0e 94 79 0a 	call	0x14f2	; 0x14f2 <bma020_read_raw_acceleration>
    1434:	89 81       	ldd	r24, Y+1	; 0x01
    1436:	9a 81       	ldd	r25, Y+2	; 0x02
    1438:	90 95       	com	r25
    143a:	81 95       	neg	r24
    143c:	9f 4f       	sbci	r25, 0xFF	; 255
    143e:	90 93 b1 03 	sts	0x03B1, r25
    1442:	80 93 b0 03 	sts	0x03B0, r24
    1446:	8b 81       	ldd	r24, Y+3	; 0x03
    1448:	9c 81       	ldd	r25, Y+4	; 0x04
    144a:	90 95       	com	r25
    144c:	81 95       	neg	r24
    144e:	9f 4f       	sbci	r25, 0xFF	; 255
    1450:	90 93 b3 03 	sts	0x03B3, r25
    1454:	80 93 b2 03 	sts	0x03B2, r24
    1458:	0e 94 60 0d 	call	0x1ac0	; 0x1ac0 <bma020_get_range>
    145c:	68 2f       	mov	r22, r24
    145e:	70 e0       	ldi	r23, 0x00	; 0
    1460:	8f ef       	ldi	r24, 0xFF	; 255
    1462:	9f e7       	ldi	r25, 0x7F	; 127
    1464:	0e 94 19 15 	call	0x2a32	; 0x2a32 <__divmodhi4>
    1468:	8d 81       	ldd	r24, Y+5	; 0x05
    146a:	9e 81       	ldd	r25, Y+6	; 0x06
    146c:	68 1b       	sub	r22, r24
    146e:	79 0b       	sbc	r23, r25
    1470:	70 93 b5 03 	sts	0x03B5, r23
    1474:	60 93 b4 03 	sts	0x03B4, r22
    1478:	26 96       	adiw	r28, 0x06	; 6
    147a:	0f b6       	in	r0, 0x3f	; 63
    147c:	f8 94       	cli
    147e:	de bf       	out	0x3e, r29	; 62
    1480:	0f be       	out	0x3f, r0	; 63
    1482:	cd bf       	out	0x3d, r28	; 61
    1484:	cf 91       	pop	r28
    1486:	df 91       	pop	r29
    1488:	08 95       	ret

0000148a <acceleration_get_offset>:
    148a:	fc 01       	movw	r30, r24
    148c:	80 91 b0 03 	lds	r24, 0x03B0
    1490:	90 91 b1 03 	lds	r25, 0x03B1
    1494:	91 83       	std	Z+1, r25	; 0x01
    1496:	80 83       	st	Z, r24
    1498:	80 91 b2 03 	lds	r24, 0x03B2
    149c:	90 91 b3 03 	lds	r25, 0x03B3
    14a0:	93 83       	std	Z+3, r25	; 0x03
    14a2:	82 83       	std	Z+2, r24	; 0x02
    14a4:	80 91 b4 03 	lds	r24, 0x03B4
    14a8:	90 91 b5 03 	lds	r25, 0x03B5
    14ac:	95 83       	std	Z+5, r25	; 0x05
    14ae:	84 83       	std	Z+4, r24	; 0x04
    14b0:	08 95       	ret

000014b2 <acceleration_init>:
    14b2:	10 92 b1 03 	sts	0x03B1, r1
    14b6:	10 92 b0 03 	sts	0x03B0, r1
    14ba:	10 92 b3 03 	sts	0x03B3, r1
    14be:	10 92 b2 03 	sts	0x03B2, r1
    14c2:	10 92 b5 03 	sts	0x03B5, r1
    14c6:	10 92 b4 03 	sts	0x03B4, r1
    14ca:	08 95       	ret

000014cc <bma020_get_chip_id>:
    14cc:	88 e3       	ldi	r24, 0x38	; 56
    14ce:	61 e0       	ldi	r22, 0x01	; 1
    14d0:	0e 94 5a 08 	call	0x10b4	; 0x10b4 <twi_master_read_register>
    14d4:	87 70       	andi	r24, 0x07	; 7
    14d6:	08 95       	ret

000014d8 <bma020_get_ml_version>:
    14d8:	88 e3       	ldi	r24, 0x38	; 56
    14da:	61 e0       	ldi	r22, 0x01	; 1
    14dc:	0e 94 5a 08 	call	0x10b4	; 0x10b4 <twi_master_read_register>
    14e0:	8f 70       	andi	r24, 0x0F	; 15
    14e2:	08 95       	ret

000014e4 <bma020_get_ai_version>:
    14e4:	88 e3       	ldi	r24, 0x38	; 56
    14e6:	61 e0       	ldi	r22, 0x01	; 1
    14e8:	0e 94 5a 08 	call	0x10b4	; 0x10b4 <twi_master_read_register>
    14ec:	82 95       	swap	r24
    14ee:	8f 70       	andi	r24, 0x0F	; 15
    14f0:	08 95       	ret

000014f2 <bma020_read_raw_acceleration>:
    14f2:	cf 93       	push	r28
    14f4:	df 93       	push	r29
    14f6:	ec 01       	movw	r28, r24
    14f8:	82 e0       	ldi	r24, 0x02	; 2
    14fa:	80 93 11 04 	sts	0x0411, r24
    14fe:	0e 94 9d 07 	call	0xf3a	; 0xf3a <twi_master_set_ready>
    1502:	88 e3       	ldi	r24, 0x38	; 56
    1504:	61 e0       	ldi	r22, 0x01	; 1
    1506:	0e 94 78 07 	call	0xef0	; 0xef0 <twi_send_data>
    150a:	88 e3       	ldi	r24, 0x38	; 56
    150c:	66 e0       	ldi	r22, 0x06	; 6
    150e:	0e 94 8b 07 	call	0xf16	; 0xf16 <twi_receive_data>
    1512:	80 91 02 04 	lds	r24, 0x0402
    1516:	90 e0       	ldi	r25, 0x00	; 0
    1518:	80 7c       	andi	r24, 0xC0	; 192
    151a:	90 70       	andi	r25, 0x00	; 0
    151c:	99 83       	std	Y+1, r25	; 0x01
    151e:	88 83       	st	Y, r24
    1520:	40 91 03 04 	lds	r20, 0x0403
    1524:	34 2f       	mov	r19, r20
    1526:	20 e0       	ldi	r18, 0x00	; 0
    1528:	82 2b       	or	r24, r18
    152a:	93 2b       	or	r25, r19
    152c:	99 83       	std	Y+1, r25	; 0x01
    152e:	88 83       	st	Y, r24
    1530:	80 91 04 04 	lds	r24, 0x0404
    1534:	90 e0       	ldi	r25, 0x00	; 0
    1536:	80 7c       	andi	r24, 0xC0	; 192
    1538:	90 70       	andi	r25, 0x00	; 0
    153a:	9b 83       	std	Y+3, r25	; 0x03
    153c:	8a 83       	std	Y+2, r24	; 0x02
    153e:	40 91 05 04 	lds	r20, 0x0405
    1542:	34 2f       	mov	r19, r20
    1544:	20 e0       	ldi	r18, 0x00	; 0
    1546:	82 2b       	or	r24, r18
    1548:	93 2b       	or	r25, r19
    154a:	9b 83       	std	Y+3, r25	; 0x03
    154c:	8a 83       	std	Y+2, r24	; 0x02
    154e:	80 91 06 04 	lds	r24, 0x0406
    1552:	90 e0       	ldi	r25, 0x00	; 0
    1554:	80 7c       	andi	r24, 0xC0	; 192
    1556:	90 70       	andi	r25, 0x00	; 0
    1558:	9d 83       	std	Y+5, r25	; 0x05
    155a:	8c 83       	std	Y+4, r24	; 0x04
    155c:	40 91 07 04 	lds	r20, 0x0407
    1560:	34 2f       	mov	r19, r20
    1562:	20 e0       	ldi	r18, 0x00	; 0
    1564:	82 2b       	or	r24, r18
    1566:	93 2b       	or	r25, r19
    1568:	9d 83       	std	Y+5, r25	; 0x05
    156a:	8c 83       	std	Y+4, r24	; 0x04
    156c:	df 91       	pop	r29
    156e:	cf 91       	pop	r28
    1570:	08 95       	ret

00001572 <bma020_is_new_data>:
    1572:	88 37       	cpi	r24, 0x78	; 120
    1574:	31 f0       	breq	.+12     	; 0x1582 <bma020_is_new_data+0x10>
    1576:	89 37       	cpi	r24, 0x79	; 121
    1578:	31 f0       	breq	.+12     	; 0x1586 <bma020_is_new_data+0x14>
    157a:	8a 37       	cpi	r24, 0x7A	; 122
    157c:	51 f4       	brne	.+20     	; 0x1592 <bma020_is_new_data+0x20>
    157e:	66 e0       	ldi	r22, 0x06	; 6
    1580:	03 c0       	rjmp	.+6      	; 0x1588 <bma020_is_new_data+0x16>
    1582:	62 e0       	ldi	r22, 0x02	; 2
    1584:	01 c0       	rjmp	.+2      	; 0x1588 <bma020_is_new_data+0x16>
    1586:	64 e0       	ldi	r22, 0x04	; 4
    1588:	88 e3       	ldi	r24, 0x38	; 56
    158a:	40 e0       	ldi	r20, 0x00	; 0
    158c:	0e 94 78 08 	call	0x10f0	; 0x10f0 <twi_master_read_register_bit>
    1590:	08 95       	ret
    1592:	80 e0       	ldi	r24, 0x00	; 0
    1594:	08 95       	ret

00001596 <bma020_get_status_hg>:
    1596:	88 e3       	ldi	r24, 0x38	; 56
    1598:	69 e0       	ldi	r22, 0x09	; 9
    159a:	40 e0       	ldi	r20, 0x00	; 0
    159c:	0e 94 78 08 	call	0x10f0	; 0x10f0 <twi_master_read_register_bit>
    15a0:	08 95       	ret

000015a2 <bma020_get_status_lg>:
    15a2:	88 e3       	ldi	r24, 0x38	; 56
    15a4:	69 e0       	ldi	r22, 0x09	; 9
    15a6:	41 e0       	ldi	r20, 0x01	; 1
    15a8:	0e 94 78 08 	call	0x10f0	; 0x10f0 <twi_master_read_register_bit>
    15ac:	08 95       	ret

000015ae <bma020_get_lg_latched>:
    15ae:	88 e3       	ldi	r24, 0x38	; 56
    15b0:	69 e0       	ldi	r22, 0x09	; 9
    15b2:	43 e0       	ldi	r20, 0x03	; 3
    15b4:	0e 94 78 08 	call	0x10f0	; 0x10f0 <twi_master_read_register_bit>
    15b8:	08 95       	ret

000015ba <bma020_reset_lg_latched>:
    15ba:	88 e3       	ldi	r24, 0x38	; 56
    15bc:	69 e0       	ldi	r22, 0x09	; 9
    15be:	43 e0       	ldi	r20, 0x03	; 3
    15c0:	20 e0       	ldi	r18, 0x00	; 0
    15c2:	0e 94 8c 08 	call	0x1118	; 0x1118 <twi_master_write_register_bit>
    15c6:	08 95       	ret

000015c8 <bma020_get_hg_latched>:
    15c8:	88 e3       	ldi	r24, 0x38	; 56
    15ca:	69 e0       	ldi	r22, 0x09	; 9
    15cc:	42 e0       	ldi	r20, 0x02	; 2
    15ce:	0e 94 78 08 	call	0x10f0	; 0x10f0 <twi_master_read_register_bit>
    15d2:	08 95       	ret

000015d4 <bma020_reset_hg_latched>:
    15d4:	88 e3       	ldi	r24, 0x38	; 56
    15d6:	69 e0       	ldi	r22, 0x09	; 9
    15d8:	42 e0       	ldi	r20, 0x02	; 2
    15da:	20 e0       	ldi	r18, 0x00	; 0
    15dc:	0e 94 8c 08 	call	0x1118	; 0x1118 <twi_master_write_register_bit>
    15e0:	08 95       	ret

000015e2 <bma020_get_alert_phase>:
    15e2:	88 e3       	ldi	r24, 0x38	; 56
    15e4:	69 e0       	ldi	r22, 0x09	; 9
    15e6:	44 e0       	ldi	r20, 0x04	; 4
    15e8:	0e 94 78 08 	call	0x10f0	; 0x10f0 <twi_master_read_register_bit>
    15ec:	08 95       	ret

000015ee <bma020_get_self_test_result>:
    15ee:	88 e3       	ldi	r24, 0x38	; 56
    15f0:	69 e0       	ldi	r22, 0x09	; 9
    15f2:	47 e0       	ldi	r20, 0x07	; 7
    15f4:	0e 94 78 08 	call	0x10f0	; 0x10f0 <twi_master_read_register_bit>
    15f8:	08 95       	ret

000015fa <bma020_sleep>:
    15fa:	88 e3       	ldi	r24, 0x38	; 56
    15fc:	6a e0       	ldi	r22, 0x0A	; 10
    15fe:	40 e0       	ldi	r20, 0x00	; 0
    1600:	21 e0       	ldi	r18, 0x01	; 1
    1602:	0e 94 8c 08 	call	0x1118	; 0x1118 <twi_master_write_register_bit>
    1606:	08 95       	ret

00001608 <bma020_soft_reset>:
    1608:	88 e3       	ldi	r24, 0x38	; 56
    160a:	6a e0       	ldi	r22, 0x0A	; 10
    160c:	41 e0       	ldi	r20, 0x01	; 1
    160e:	21 e0       	ldi	r18, 0x01	; 1
    1610:	0e 94 8c 08 	call	0x1118	; 0x1118 <twi_master_write_register_bit>
    1614:	08 95       	ret

00001616 <bma020_perform_self_test_0>:
    1616:	88 e3       	ldi	r24, 0x38	; 56
    1618:	6a e0       	ldi	r22, 0x0A	; 10
    161a:	42 e0       	ldi	r20, 0x02	; 2
    161c:	21 e0       	ldi	r18, 0x01	; 1
    161e:	0e 94 8c 08 	call	0x1118	; 0x1118 <twi_master_write_register_bit>
    1622:	08 95       	ret

00001624 <bma020_perform_self_test_1>:
    1624:	88 e3       	ldi	r24, 0x38	; 56
    1626:	6a e0       	ldi	r22, 0x0A	; 10
    1628:	43 e0       	ldi	r20, 0x03	; 3
    162a:	21 e0       	ldi	r18, 0x01	; 1
    162c:	0e 94 8c 08 	call	0x1118	; 0x1118 <twi_master_write_register_bit>
    1630:	08 95       	ret

00001632 <bma020_enable_spi4>:
    1632:	28 2f       	mov	r18, r24
    1634:	88 e3       	ldi	r24, 0x38	; 56
    1636:	65 e1       	ldi	r22, 0x15	; 21
    1638:	47 e0       	ldi	r20, 0x07	; 7
    163a:	0e 94 8c 08 	call	0x1118	; 0x1118 <twi_master_write_register_bit>
    163e:	08 95       	ret

00001640 <bma020_is_spi4>:
    1640:	88 e3       	ldi	r24, 0x38	; 56
    1642:	65 e1       	ldi	r22, 0x15	; 21
    1644:	47 e0       	ldi	r20, 0x07	; 7
    1646:	0e 94 78 08 	call	0x10f0	; 0x10f0 <twi_master_read_register_bit>
    164a:	08 95       	ret

0000164c <bma020_disable_shadow>:
    164c:	28 2f       	mov	r18, r24
    164e:	88 e3       	ldi	r24, 0x38	; 56
    1650:	65 e1       	ldi	r22, 0x15	; 21
    1652:	43 e0       	ldi	r20, 0x03	; 3
    1654:	0e 94 8c 08 	call	0x1118	; 0x1118 <twi_master_write_register_bit>
    1658:	08 95       	ret

0000165a <bma020_is_shadow_disabled>:
    165a:	88 e3       	ldi	r24, 0x38	; 56
    165c:	65 e1       	ldi	r22, 0x15	; 21
    165e:	43 e0       	ldi	r20, 0x03	; 3
    1660:	0e 94 78 08 	call	0x10f0	; 0x10f0 <twi_master_read_register_bit>
    1664:	08 95       	ret

00001666 <bma020_reset_interrupt>:
    1666:	88 e3       	ldi	r24, 0x38	; 56
    1668:	6a e0       	ldi	r22, 0x0A	; 10
    166a:	46 e0       	ldi	r20, 0x06	; 6
    166c:	21 e0       	ldi	r18, 0x01	; 1
    166e:	0e 94 8c 08 	call	0x1118	; 0x1118 <twi_master_write_register_bit>
    1672:	08 95       	ret

00001674 <bma020_enable_new_data_int>:
    1674:	28 2f       	mov	r18, r24
    1676:	88 e3       	ldi	r24, 0x38	; 56
    1678:	65 e1       	ldi	r22, 0x15	; 21
    167a:	45 e0       	ldi	r20, 0x05	; 5
    167c:	0e 94 8c 08 	call	0x1118	; 0x1118 <twi_master_write_register_bit>
    1680:	08 95       	ret

00001682 <bma020_is_new_data_int>:
    1682:	88 e3       	ldi	r24, 0x38	; 56
    1684:	65 e1       	ldi	r22, 0x15	; 21
    1686:	45 e0       	ldi	r20, 0x05	; 5
    1688:	0e 94 78 08 	call	0x10f0	; 0x10f0 <twi_master_read_register_bit>
    168c:	08 95       	ret

0000168e <bma020_enable_lg_int>:
    168e:	28 2f       	mov	r18, r24
    1690:	88 e3       	ldi	r24, 0x38	; 56
    1692:	6b e0       	ldi	r22, 0x0B	; 11
    1694:	40 e0       	ldi	r20, 0x00	; 0
    1696:	0e 94 8c 08 	call	0x1118	; 0x1118 <twi_master_write_register_bit>
    169a:	08 95       	ret

0000169c <bma020_is_lg_int>:
    169c:	88 e3       	ldi	r24, 0x38	; 56
    169e:	6b e0       	ldi	r22, 0x0B	; 11
    16a0:	40 e0       	ldi	r20, 0x00	; 0
    16a2:	0e 94 78 08 	call	0x10f0	; 0x10f0 <twi_master_read_register_bit>
    16a6:	08 95       	ret

000016a8 <bma020_enable_hg_int>:
    16a8:	28 2f       	mov	r18, r24
    16aa:	88 e3       	ldi	r24, 0x38	; 56
    16ac:	6b e0       	ldi	r22, 0x0B	; 11
    16ae:	41 e0       	ldi	r20, 0x01	; 1
    16b0:	0e 94 8c 08 	call	0x1118	; 0x1118 <twi_master_write_register_bit>
    16b4:	08 95       	ret

000016b6 <bma020_is_hg_int>:
    16b6:	88 e3       	ldi	r24, 0x38	; 56
    16b8:	6b e0       	ldi	r22, 0x0B	; 11
    16ba:	41 e0       	ldi	r20, 0x01	; 1
    16bc:	0e 94 78 08 	call	0x10f0	; 0x10f0 <twi_master_read_register_bit>
    16c0:	08 95       	ret

000016c2 <bma020_enable_advanced_int>:
    16c2:	28 2f       	mov	r18, r24
    16c4:	88 e3       	ldi	r24, 0x38	; 56
    16c6:	65 e1       	ldi	r22, 0x15	; 21
    16c8:	46 e0       	ldi	r20, 0x06	; 6
    16ca:	0e 94 8c 08 	call	0x1118	; 0x1118 <twi_master_write_register_bit>
    16ce:	08 95       	ret

000016d0 <bma020_is_advanced_int>:
    16d0:	88 e3       	ldi	r24, 0x38	; 56
    16d2:	65 e1       	ldi	r22, 0x15	; 21
    16d4:	46 e0       	ldi	r20, 0x06	; 6
    16d6:	0e 94 78 08 	call	0x10f0	; 0x10f0 <twi_master_read_register_bit>
    16da:	08 95       	ret

000016dc <bma020_enable_any_motion_int>:
    16dc:	28 2f       	mov	r18, r24
    16de:	88 e3       	ldi	r24, 0x38	; 56
    16e0:	6b e0       	ldi	r22, 0x0B	; 11
    16e2:	46 e0       	ldi	r20, 0x06	; 6
    16e4:	0e 94 8c 08 	call	0x1118	; 0x1118 <twi_master_write_register_bit>
    16e8:	08 95       	ret

000016ea <bma020_is_any_motion_int>:
    16ea:	88 e3       	ldi	r24, 0x38	; 56
    16ec:	6b e0       	ldi	r22, 0x0B	; 11
    16ee:	46 e0       	ldi	r20, 0x06	; 6
    16f0:	0e 94 78 08 	call	0x10f0	; 0x10f0 <twi_master_read_register_bit>
    16f4:	08 95       	ret

000016f6 <bma020_enable_motion_alert_int>:
    16f6:	28 2f       	mov	r18, r24
    16f8:	88 e3       	ldi	r24, 0x38	; 56
    16fa:	6b e0       	ldi	r22, 0x0B	; 11
    16fc:	47 e0       	ldi	r20, 0x07	; 7
    16fe:	0e 94 8c 08 	call	0x1118	; 0x1118 <twi_master_write_register_bit>
    1702:	08 95       	ret

00001704 <bma020_is_motion_alert_int>:
    1704:	88 e3       	ldi	r24, 0x38	; 56
    1706:	6b e0       	ldi	r22, 0x0B	; 11
    1708:	47 e0       	ldi	r20, 0x07	; 7
    170a:	0e 94 78 08 	call	0x10f0	; 0x10f0 <twi_master_read_register_bit>
    170e:	08 95       	ret

00001710 <bma020_enable_latched_int>:
    1710:	28 2f       	mov	r18, r24
    1712:	88 e3       	ldi	r24, 0x38	; 56
    1714:	65 e1       	ldi	r22, 0x15	; 21
    1716:	44 e0       	ldi	r20, 0x04	; 4
    1718:	0e 94 8c 08 	call	0x1118	; 0x1118 <twi_master_write_register_bit>
    171c:	08 95       	ret

0000171e <bma020_is_latched_int>:
    171e:	88 e3       	ldi	r24, 0x38	; 56
    1720:	65 e1       	ldi	r22, 0x15	; 21
    1722:	44 e0       	ldi	r20, 0x04	; 4
    1724:	0e 94 78 08 	call	0x10f0	; 0x10f0 <twi_master_read_register_bit>
    1728:	08 95       	ret

0000172a <bma020_set_lg_threshold>:
    172a:	48 2f       	mov	r20, r24
    172c:	88 e3       	ldi	r24, 0x38	; 56
    172e:	6c e0       	ldi	r22, 0x0C	; 12
    1730:	0e 94 6d 08 	call	0x10da	; 0x10da <twi_master_write_register>
    1734:	08 95       	ret

00001736 <bma020_get_lg_threshold>:
    1736:	88 e3       	ldi	r24, 0x38	; 56
    1738:	6c e0       	ldi	r22, 0x0C	; 12
    173a:	0e 94 5a 08 	call	0x10b4	; 0x10b4 <twi_master_read_register>
    173e:	08 95       	ret

00001740 <bma020_set_lg_duration>:
    1740:	48 2f       	mov	r20, r24
    1742:	88 e3       	ldi	r24, 0x38	; 56
    1744:	6d e0       	ldi	r22, 0x0D	; 13
    1746:	0e 94 6d 08 	call	0x10da	; 0x10da <twi_master_write_register>
    174a:	08 95       	ret

0000174c <bma020_get_lg_duration>:
    174c:	88 e3       	ldi	r24, 0x38	; 56
    174e:	6d e0       	ldi	r22, 0x0D	; 13
    1750:	0e 94 5a 08 	call	0x10b4	; 0x10b4 <twi_master_read_register>
    1754:	08 95       	ret

00001756 <bma020_set_counter_lg>:
    1756:	1f 93       	push	r17
    1758:	18 2f       	mov	r17, r24
    175a:	84 30       	cpi	r24, 0x04	; 4
    175c:	78 f4       	brcc	.+30     	; 0x177c <bma020_set_counter_lg+0x26>
    175e:	88 e3       	ldi	r24, 0x38	; 56
    1760:	6b e0       	ldi	r22, 0x0B	; 11
    1762:	0e 94 5a 08 	call	0x10b4	; 0x10b4 <twi_master_read_register>
    1766:	83 7f       	andi	r24, 0xF3	; 243
    1768:	41 2f       	mov	r20, r17
    176a:	44 0f       	add	r20, r20
    176c:	44 0f       	add	r20, r20
    176e:	48 2b       	or	r20, r24
    1770:	88 e3       	ldi	r24, 0x38	; 56
    1772:	6b e0       	ldi	r22, 0x0B	; 11
    1774:	0e 94 6d 08 	call	0x10da	; 0x10da <twi_master_write_register>
    1778:	81 e0       	ldi	r24, 0x01	; 1
    177a:	01 c0       	rjmp	.+2      	; 0x177e <bma020_set_counter_lg+0x28>
    177c:	80 e0       	ldi	r24, 0x00	; 0
    177e:	1f 91       	pop	r17
    1780:	08 95       	ret

00001782 <bma020_get_counter_lg>:
    1782:	88 e3       	ldi	r24, 0x38	; 56
    1784:	6b e0       	ldi	r22, 0x0B	; 11
    1786:	0e 94 5a 08 	call	0x10b4	; 0x10b4 <twi_master_read_register>
    178a:	8c 70       	andi	r24, 0x0C	; 12
    178c:	86 95       	lsr	r24
    178e:	86 95       	lsr	r24
    1790:	08 95       	ret

00001792 <bma020_set_lg_hysterese>:
    1792:	1f 93       	push	r17
    1794:	18 2f       	mov	r17, r24
    1796:	88 e3       	ldi	r24, 0x38	; 56
    1798:	61 e1       	ldi	r22, 0x11	; 17
    179a:	0e 94 5a 08 	call	0x10b4	; 0x10b4 <twi_master_read_register>
    179e:	48 2f       	mov	r20, r24
    17a0:	4c 7f       	andi	r20, 0xFC	; 252
    17a2:	17 70       	andi	r17, 0x07	; 7
    17a4:	41 2b       	or	r20, r17
    17a6:	88 e3       	ldi	r24, 0x38	; 56
    17a8:	61 e1       	ldi	r22, 0x11	; 17
    17aa:	0e 94 6d 08 	call	0x10da	; 0x10da <twi_master_write_register>
    17ae:	1f 91       	pop	r17
    17b0:	08 95       	ret

000017b2 <bma020_get_lg_hysterese>:
    17b2:	88 e3       	ldi	r24, 0x38	; 56
    17b4:	61 e1       	ldi	r22, 0x11	; 17
    17b6:	0e 94 5a 08 	call	0x10b4	; 0x10b4 <twi_master_read_register>
    17ba:	87 70       	andi	r24, 0x07	; 7
    17bc:	08 95       	ret

000017be <bma020_set_hg_threshold>:
    17be:	48 2f       	mov	r20, r24
    17c0:	88 e3       	ldi	r24, 0x38	; 56
    17c2:	6e e0       	ldi	r22, 0x0E	; 14
    17c4:	0e 94 6d 08 	call	0x10da	; 0x10da <twi_master_write_register>
    17c8:	08 95       	ret

000017ca <bma020_get_hg_threshold>:
    17ca:	88 e3       	ldi	r24, 0x38	; 56
    17cc:	6e e0       	ldi	r22, 0x0E	; 14
    17ce:	0e 94 5a 08 	call	0x10b4	; 0x10b4 <twi_master_read_register>
    17d2:	08 95       	ret

000017d4 <bma020_set_hg_duration>:
    17d4:	48 2f       	mov	r20, r24
    17d6:	88 e3       	ldi	r24, 0x38	; 56
    17d8:	6f e0       	ldi	r22, 0x0F	; 15
    17da:	0e 94 6d 08 	call	0x10da	; 0x10da <twi_master_write_register>
    17de:	08 95       	ret

000017e0 <bma020_get_hg_duration>:
    17e0:	88 e3       	ldi	r24, 0x38	; 56
    17e2:	6f e0       	ldi	r22, 0x0F	; 15
    17e4:	0e 94 5a 08 	call	0x10b4	; 0x10b4 <twi_master_read_register>
    17e8:	08 95       	ret

000017ea <bma020_set_counter_hg>:
    17ea:	1f 93       	push	r17
    17ec:	18 2f       	mov	r17, r24
    17ee:	84 30       	cpi	r24, 0x04	; 4
    17f0:	78 f4       	brcc	.+30     	; 0x1810 <bma020_set_counter_hg+0x26>
    17f2:	88 e3       	ldi	r24, 0x38	; 56
    17f4:	6b e0       	ldi	r22, 0x0B	; 11
    17f6:	0e 94 5a 08 	call	0x10b4	; 0x10b4 <twi_master_read_register>
    17fa:	8f 7c       	andi	r24, 0xCF	; 207
    17fc:	41 2f       	mov	r20, r17
    17fe:	42 95       	swap	r20
    1800:	40 7f       	andi	r20, 0xF0	; 240
    1802:	48 2b       	or	r20, r24
    1804:	88 e3       	ldi	r24, 0x38	; 56
    1806:	6b e0       	ldi	r22, 0x0B	; 11
    1808:	0e 94 6d 08 	call	0x10da	; 0x10da <twi_master_write_register>
    180c:	81 e0       	ldi	r24, 0x01	; 1
    180e:	01 c0       	rjmp	.+2      	; 0x1812 <bma020_set_counter_hg+0x28>
    1810:	80 e0       	ldi	r24, 0x00	; 0
    1812:	1f 91       	pop	r17
    1814:	08 95       	ret

00001816 <bma020_get_counter_hg>:
    1816:	88 e3       	ldi	r24, 0x38	; 56
    1818:	6b e0       	ldi	r22, 0x0B	; 11
    181a:	0e 94 5a 08 	call	0x10b4	; 0x10b4 <twi_master_read_register>
    181e:	80 73       	andi	r24, 0x30	; 48
    1820:	82 95       	swap	r24
    1822:	8f 70       	andi	r24, 0x0F	; 15
    1824:	08 95       	ret

00001826 <bma020_set_hg_hysterese>:
    1826:	1f 93       	push	r17
    1828:	18 2f       	mov	r17, r24
    182a:	88 e3       	ldi	r24, 0x38	; 56
    182c:	61 e1       	ldi	r22, 0x11	; 17
    182e:	0e 94 5a 08 	call	0x10b4	; 0x10b4 <twi_master_read_register>
    1832:	88 7f       	andi	r24, 0xF8	; 248
    1834:	41 2f       	mov	r20, r17
    1836:	47 70       	andi	r20, 0x07	; 7
    1838:	44 0f       	add	r20, r20
    183a:	44 0f       	add	r20, r20
    183c:	44 0f       	add	r20, r20
    183e:	48 2b       	or	r20, r24
    1840:	88 e3       	ldi	r24, 0x38	; 56
    1842:	61 e1       	ldi	r22, 0x11	; 17
    1844:	0e 94 6d 08 	call	0x10da	; 0x10da <twi_master_write_register>
    1848:	1f 91       	pop	r17
    184a:	08 95       	ret

0000184c <bma020_get_hg_hysterese>:
    184c:	88 e3       	ldi	r24, 0x38	; 56
    184e:	61 e1       	ldi	r22, 0x11	; 17
    1850:	0e 94 5a 08 	call	0x10b4	; 0x10b4 <twi_master_read_register>
    1854:	88 73       	andi	r24, 0x38	; 56
    1856:	86 95       	lsr	r24
    1858:	86 95       	lsr	r24
    185a:	86 95       	lsr	r24
    185c:	08 95       	ret

0000185e <bma020_set_any_motion_threshold>:
    185e:	48 2f       	mov	r20, r24
    1860:	88 e3       	ldi	r24, 0x38	; 56
    1862:	60 e1       	ldi	r22, 0x10	; 16
    1864:	0e 94 6d 08 	call	0x10da	; 0x10da <twi_master_write_register>
    1868:	08 95       	ret

0000186a <bma020_get_any_motion_threshold>:
    186a:	88 e3       	ldi	r24, 0x38	; 56
    186c:	60 e1       	ldi	r22, 0x10	; 16
    186e:	0e 94 5a 08 	call	0x10b4	; 0x10b4 <twi_master_read_register>
    1872:	08 95       	ret

00001874 <bma020_set_any_motion_duration>:
    1874:	1f 93       	push	r17
    1876:	18 2f       	mov	r17, r24
    1878:	81 30       	cpi	r24, 0x01	; 1
    187a:	31 f0       	breq	.+12     	; 0x1888 <bma020_set_any_motion_duration+0x14>
    187c:	83 30       	cpi	r24, 0x03	; 3
    187e:	21 f0       	breq	.+8      	; 0x1888 <bma020_set_any_motion_duration+0x14>
    1880:	85 30       	cpi	r24, 0x05	; 5
    1882:	11 f0       	breq	.+4      	; 0x1888 <bma020_set_any_motion_duration+0x14>
    1884:	87 30       	cpi	r24, 0x07	; 7
    1886:	c9 f4       	brne	.+50     	; 0x18ba <bma020_set_any_motion_duration+0x46>
    1888:	88 e3       	ldi	r24, 0x38	; 56
    188a:	61 e1       	ldi	r22, 0x11	; 17
    188c:	0e 94 5a 08 	call	0x10b4	; 0x10b4 <twi_master_read_register>
    1890:	48 2f       	mov	r20, r24
    1892:	4f 73       	andi	r20, 0x3F	; 63
    1894:	11 30       	cpi	r17, 0x01	; 1
    1896:	59 f0       	breq	.+22     	; 0x18ae <bma020_set_any_motion_duration+0x3a>
    1898:	13 30       	cpi	r17, 0x03	; 3
    189a:	11 f4       	brne	.+4      	; 0x18a0 <bma020_set_any_motion_duration+0x2c>
    189c:	40 64       	ori	r20, 0x40	; 64
    189e:	07 c0       	rjmp	.+14     	; 0x18ae <bma020_set_any_motion_duration+0x3a>
    18a0:	15 30       	cpi	r17, 0x05	; 5
    18a2:	11 f4       	brne	.+4      	; 0x18a8 <bma020_set_any_motion_duration+0x34>
    18a4:	40 68       	ori	r20, 0x80	; 128
    18a6:	03 c0       	rjmp	.+6      	; 0x18ae <bma020_set_any_motion_duration+0x3a>
    18a8:	17 30       	cpi	r17, 0x07	; 7
    18aa:	09 f4       	brne	.+2      	; 0x18ae <bma020_set_any_motion_duration+0x3a>
    18ac:	40 6c       	ori	r20, 0xC0	; 192
    18ae:	88 e3       	ldi	r24, 0x38	; 56
    18b0:	61 e1       	ldi	r22, 0x11	; 17
    18b2:	0e 94 6d 08 	call	0x10da	; 0x10da <twi_master_write_register>
    18b6:	81 e0       	ldi	r24, 0x01	; 1
    18b8:	01 c0       	rjmp	.+2      	; 0x18bc <bma020_set_any_motion_duration+0x48>
    18ba:	80 e0       	ldi	r24, 0x00	; 0
    18bc:	1f 91       	pop	r17
    18be:	08 95       	ret

000018c0 <bma020_get_any_motion_duration>:
    18c0:	88 e3       	ldi	r24, 0x38	; 56
    18c2:	61 e1       	ldi	r22, 0x11	; 17
    18c4:	0e 94 5a 08 	call	0x10b4	; 0x10b4 <twi_master_read_register>
    18c8:	80 7c       	andi	r24, 0xC0	; 192
    18ca:	80 34       	cpi	r24, 0x40	; 64
    18cc:	29 f0       	breq	.+10     	; 0x18d8 <bma020_get_any_motion_duration+0x18>
    18ce:	80 3c       	cpi	r24, 0xC0	; 192
    18d0:	31 f4       	brne	.+12     	; 0x18de <bma020_get_any_motion_duration+0x1e>
    18d2:	87 e0       	ldi	r24, 0x07	; 7
    18d4:	90 e0       	ldi	r25, 0x00	; 0
    18d6:	08 95       	ret
    18d8:	83 e0       	ldi	r24, 0x03	; 3
    18da:	90 e0       	ldi	r25, 0x00	; 0
    18dc:	08 95       	ret
    18de:	81 e0       	ldi	r24, 0x01	; 1
    18e0:	90 e0       	ldi	r25, 0x00	; 0
    18e2:	08 95       	ret

000018e4 <bma020_enable_wake_up>:
    18e4:	28 2f       	mov	r18, r24
    18e6:	88 e3       	ldi	r24, 0x38	; 56
    18e8:	65 e1       	ldi	r22, 0x15	; 21
    18ea:	40 e0       	ldi	r20, 0x00	; 0
    18ec:	0e 94 8c 08 	call	0x1118	; 0x1118 <twi_master_write_register_bit>
    18f0:	08 95       	ret

000018f2 <bma020_is_wake_up>:
    18f2:	88 e3       	ldi	r24, 0x38	; 56
    18f4:	65 e1       	ldi	r22, 0x15	; 21
    18f6:	40 e0       	ldi	r20, 0x00	; 0
    18f8:	0e 94 78 08 	call	0x10f0	; 0x10f0 <twi_master_read_register_bit>
    18fc:	08 95       	ret

000018fe <bma020_set_wake_up_pause>:
    18fe:	cf 93       	push	r28
    1900:	df 93       	push	r29
    1902:	ec 01       	movw	r28, r24
    1904:	84 31       	cpi	r24, 0x14	; 20
    1906:	91 05       	cpc	r25, r1
    1908:	59 f0       	breq	.+22     	; 0x1920 <bma020_set_wake_up_pause+0x22>
    190a:	80 35       	cpi	r24, 0x50	; 80
    190c:	91 05       	cpc	r25, r1
    190e:	41 f0       	breq	.+16     	; 0x1920 <bma020_set_wake_up_pause+0x22>
    1910:	81 e0       	ldi	r24, 0x01	; 1
    1912:	c0 34       	cpi	r28, 0x40	; 64
    1914:	d8 07       	cpc	r29, r24
    1916:	21 f0       	breq	.+8      	; 0x1920 <bma020_set_wake_up_pause+0x22>
    1918:	8a e0       	ldi	r24, 0x0A	; 10
    191a:	c0 30       	cpi	r28, 0x00	; 0
    191c:	d8 07       	cpc	r29, r24
    191e:	f9 f4       	brne	.+62     	; 0x195e <bma020_set_wake_up_pause+0x60>
    1920:	88 e3       	ldi	r24, 0x38	; 56
    1922:	65 e1       	ldi	r22, 0x15	; 21
    1924:	0e 94 5a 08 	call	0x10b4	; 0x10b4 <twi_master_read_register>
    1928:	48 2f       	mov	r20, r24
    192a:	49 7f       	andi	r20, 0xF9	; 249
    192c:	c4 31       	cpi	r28, 0x14	; 20
    192e:	d1 05       	cpc	r29, r1
    1930:	81 f0       	breq	.+32     	; 0x1952 <bma020_set_wake_up_pause+0x54>
    1932:	c0 35       	cpi	r28, 0x50	; 80
    1934:	d1 05       	cpc	r29, r1
    1936:	11 f4       	brne	.+4      	; 0x193c <bma020_set_wake_up_pause+0x3e>
    1938:	42 60       	ori	r20, 0x02	; 2
    193a:	0b c0       	rjmp	.+22     	; 0x1952 <bma020_set_wake_up_pause+0x54>
    193c:	81 e0       	ldi	r24, 0x01	; 1
    193e:	c0 34       	cpi	r28, 0x40	; 64
    1940:	d8 07       	cpc	r29, r24
    1942:	11 f4       	brne	.+4      	; 0x1948 <bma020_set_wake_up_pause+0x4a>
    1944:	44 60       	ori	r20, 0x04	; 4
    1946:	05 c0       	rjmp	.+10     	; 0x1952 <bma020_set_wake_up_pause+0x54>
    1948:	8a e0       	ldi	r24, 0x0A	; 10
    194a:	c0 30       	cpi	r28, 0x00	; 0
    194c:	d8 07       	cpc	r29, r24
    194e:	09 f4       	brne	.+2      	; 0x1952 <bma020_set_wake_up_pause+0x54>
    1950:	46 60       	ori	r20, 0x06	; 6
    1952:	88 e3       	ldi	r24, 0x38	; 56
    1954:	65 e1       	ldi	r22, 0x15	; 21
    1956:	0e 94 6d 08 	call	0x10da	; 0x10da <twi_master_write_register>
    195a:	81 e0       	ldi	r24, 0x01	; 1
    195c:	01 c0       	rjmp	.+2      	; 0x1960 <bma020_set_wake_up_pause+0x62>
    195e:	80 e0       	ldi	r24, 0x00	; 0
    1960:	df 91       	pop	r29
    1962:	cf 91       	pop	r28
    1964:	08 95       	ret

00001966 <bma020_get_wake_up_pause>:
    1966:	88 e3       	ldi	r24, 0x38	; 56
    1968:	65 e1       	ldi	r22, 0x15	; 21
    196a:	0e 94 5a 08 	call	0x10b4	; 0x10b4 <twi_master_read_register>
    196e:	86 70       	andi	r24, 0x06	; 6
    1970:	82 30       	cpi	r24, 0x02	; 2
    1972:	39 f0       	breq	.+14     	; 0x1982 <bma020_get_wake_up_pause+0x1c>
    1974:	84 30       	cpi	r24, 0x04	; 4
    1976:	41 f0       	breq	.+16     	; 0x1988 <bma020_get_wake_up_pause+0x22>
    1978:	86 30       	cpi	r24, 0x06	; 6
    197a:	49 f4       	brne	.+18     	; 0x198e <bma020_get_wake_up_pause+0x28>
    197c:	20 e0       	ldi	r18, 0x00	; 0
    197e:	3a e0       	ldi	r19, 0x0A	; 10
    1980:	08 c0       	rjmp	.+16     	; 0x1992 <bma020_get_wake_up_pause+0x2c>
    1982:	20 e5       	ldi	r18, 0x50	; 80
    1984:	30 e0       	ldi	r19, 0x00	; 0
    1986:	05 c0       	rjmp	.+10     	; 0x1992 <bma020_get_wake_up_pause+0x2c>
    1988:	20 e4       	ldi	r18, 0x40	; 64
    198a:	31 e0       	ldi	r19, 0x01	; 1
    198c:	02 c0       	rjmp	.+4      	; 0x1992 <bma020_get_wake_up_pause+0x2c>
    198e:	24 e1       	ldi	r18, 0x14	; 20
    1990:	30 e0       	ldi	r19, 0x00	; 0
    1992:	c9 01       	movw	r24, r18
    1994:	08 95       	ret

00001996 <bma020_set_bandwidth>:
    1996:	cf 93       	push	r28
    1998:	df 93       	push	r29
    199a:	ec 01       	movw	r28, r24
    199c:	89 31       	cpi	r24, 0x19	; 25
    199e:	91 05       	cpc	r25, r1
    19a0:	a9 f0       	breq	.+42     	; 0x19cc <bma020_set_bandwidth+0x36>
    19a2:	82 33       	cpi	r24, 0x32	; 50
    19a4:	91 05       	cpc	r25, r1
    19a6:	91 f0       	breq	.+36     	; 0x19cc <bma020_set_bandwidth+0x36>
    19a8:	84 36       	cpi	r24, 0x64	; 100
    19aa:	91 05       	cpc	r25, r1
    19ac:	79 f0       	breq	.+30     	; 0x19cc <bma020_set_bandwidth+0x36>
    19ae:	8e 3b       	cpi	r24, 0xBE	; 190
    19b0:	91 05       	cpc	r25, r1
    19b2:	61 f0       	breq	.+24     	; 0x19cc <bma020_set_bandwidth+0x36>
    19b4:	81 e0       	ldi	r24, 0x01	; 1
    19b6:	c7 37       	cpi	r28, 0x77	; 119
    19b8:	d8 07       	cpc	r29, r24
    19ba:	41 f0       	breq	.+16     	; 0x19cc <bma020_set_bandwidth+0x36>
    19bc:	82 e0       	ldi	r24, 0x02	; 2
    19be:	ce 3e       	cpi	r28, 0xEE	; 238
    19c0:	d8 07       	cpc	r29, r24
    19c2:	21 f0       	breq	.+8      	; 0x19cc <bma020_set_bandwidth+0x36>
    19c4:	85 e0       	ldi	r24, 0x05	; 5
    19c6:	cc 3d       	cpi	r28, 0xDC	; 220
    19c8:	d8 07       	cpc	r29, r24
    19ca:	79 f5       	brne	.+94     	; 0x1a2a <bma020_set_bandwidth+0x94>
    19cc:	88 e3       	ldi	r24, 0x38	; 56
    19ce:	64 e1       	ldi	r22, 0x14	; 20
    19d0:	0e 94 5a 08 	call	0x10b4	; 0x10b4 <twi_master_read_register>
    19d4:	48 2f       	mov	r20, r24
    19d6:	48 7f       	andi	r20, 0xF8	; 248
    19d8:	c9 31       	cpi	r28, 0x19	; 25
    19da:	d1 05       	cpc	r29, r1
    19dc:	01 f1       	breq	.+64     	; 0x1a1e <bma020_set_bandwidth+0x88>
    19de:	c2 33       	cpi	r28, 0x32	; 50
    19e0:	d1 05       	cpc	r29, r1
    19e2:	11 f4       	brne	.+4      	; 0x19e8 <bma020_set_bandwidth+0x52>
    19e4:	41 60       	ori	r20, 0x01	; 1
    19e6:	1b c0       	rjmp	.+54     	; 0x1a1e <bma020_set_bandwidth+0x88>
    19e8:	c4 36       	cpi	r28, 0x64	; 100
    19ea:	d1 05       	cpc	r29, r1
    19ec:	11 f4       	brne	.+4      	; 0x19f2 <bma020_set_bandwidth+0x5c>
    19ee:	42 60       	ori	r20, 0x02	; 2
    19f0:	16 c0       	rjmp	.+44     	; 0x1a1e <bma020_set_bandwidth+0x88>
    19f2:	ce 3b       	cpi	r28, 0xBE	; 190
    19f4:	d1 05       	cpc	r29, r1
    19f6:	11 f4       	brne	.+4      	; 0x19fc <bma020_set_bandwidth+0x66>
    19f8:	43 60       	ori	r20, 0x03	; 3
    19fa:	11 c0       	rjmp	.+34     	; 0x1a1e <bma020_set_bandwidth+0x88>
    19fc:	81 e0       	ldi	r24, 0x01	; 1
    19fe:	c7 37       	cpi	r28, 0x77	; 119
    1a00:	d8 07       	cpc	r29, r24
    1a02:	11 f4       	brne	.+4      	; 0x1a08 <bma020_set_bandwidth+0x72>
    1a04:	44 60       	ori	r20, 0x04	; 4
    1a06:	0b c0       	rjmp	.+22     	; 0x1a1e <bma020_set_bandwidth+0x88>
    1a08:	82 e0       	ldi	r24, 0x02	; 2
    1a0a:	ce 3e       	cpi	r28, 0xEE	; 238
    1a0c:	d8 07       	cpc	r29, r24
    1a0e:	11 f4       	brne	.+4      	; 0x1a14 <bma020_set_bandwidth+0x7e>
    1a10:	45 60       	ori	r20, 0x05	; 5
    1a12:	05 c0       	rjmp	.+10     	; 0x1a1e <bma020_set_bandwidth+0x88>
    1a14:	85 e0       	ldi	r24, 0x05	; 5
    1a16:	cc 3d       	cpi	r28, 0xDC	; 220
    1a18:	d8 07       	cpc	r29, r24
    1a1a:	09 f4       	brne	.+2      	; 0x1a1e <bma020_set_bandwidth+0x88>
    1a1c:	46 60       	ori	r20, 0x06	; 6
    1a1e:	88 e3       	ldi	r24, 0x38	; 56
    1a20:	64 e1       	ldi	r22, 0x14	; 20
    1a22:	0e 94 6d 08 	call	0x10da	; 0x10da <twi_master_write_register>
    1a26:	81 e0       	ldi	r24, 0x01	; 1
    1a28:	01 c0       	rjmp	.+2      	; 0x1a2c <bma020_set_bandwidth+0x96>
    1a2a:	80 e0       	ldi	r24, 0x00	; 0
    1a2c:	df 91       	pop	r29
    1a2e:	cf 91       	pop	r28
    1a30:	08 95       	ret

00001a32 <bma020_get_bandwidth>:
    1a32:	88 e3       	ldi	r24, 0x38	; 56
    1a34:	64 e1       	ldi	r22, 0x14	; 20
    1a36:	0e 94 5a 08 	call	0x10b4	; 0x10b4 <twi_master_read_register>
    1a3a:	87 70       	andi	r24, 0x07	; 7
    1a3c:	81 30       	cpi	r24, 0x01	; 1
    1a3e:	69 f0       	breq	.+26     	; 0x1a5a <bma020_get_bandwidth+0x28>
    1a40:	82 30       	cpi	r24, 0x02	; 2
    1a42:	71 f0       	breq	.+28     	; 0x1a60 <bma020_get_bandwidth+0x2e>
    1a44:	83 30       	cpi	r24, 0x03	; 3
    1a46:	79 f0       	breq	.+30     	; 0x1a66 <bma020_get_bandwidth+0x34>
    1a48:	84 30       	cpi	r24, 0x04	; 4
    1a4a:	81 f0       	breq	.+32     	; 0x1a6c <bma020_get_bandwidth+0x3a>
    1a4c:	85 30       	cpi	r24, 0x05	; 5
    1a4e:	89 f0       	breq	.+34     	; 0x1a72 <bma020_get_bandwidth+0x40>
    1a50:	86 30       	cpi	r24, 0x06	; 6
    1a52:	91 f4       	brne	.+36     	; 0x1a78 <bma020_get_bandwidth+0x46>
    1a54:	2c ed       	ldi	r18, 0xDC	; 220
    1a56:	35 e0       	ldi	r19, 0x05	; 5
    1a58:	11 c0       	rjmp	.+34     	; 0x1a7c <bma020_get_bandwidth+0x4a>
    1a5a:	22 e3       	ldi	r18, 0x32	; 50
    1a5c:	30 e0       	ldi	r19, 0x00	; 0
    1a5e:	0e c0       	rjmp	.+28     	; 0x1a7c <bma020_get_bandwidth+0x4a>
    1a60:	24 e6       	ldi	r18, 0x64	; 100
    1a62:	30 e0       	ldi	r19, 0x00	; 0
    1a64:	0b c0       	rjmp	.+22     	; 0x1a7c <bma020_get_bandwidth+0x4a>
    1a66:	2e eb       	ldi	r18, 0xBE	; 190
    1a68:	30 e0       	ldi	r19, 0x00	; 0
    1a6a:	08 c0       	rjmp	.+16     	; 0x1a7c <bma020_get_bandwidth+0x4a>
    1a6c:	27 e7       	ldi	r18, 0x77	; 119
    1a6e:	31 e0       	ldi	r19, 0x01	; 1
    1a70:	05 c0       	rjmp	.+10     	; 0x1a7c <bma020_get_bandwidth+0x4a>
    1a72:	2e ee       	ldi	r18, 0xEE	; 238
    1a74:	32 e0       	ldi	r19, 0x02	; 2
    1a76:	02 c0       	rjmp	.+4      	; 0x1a7c <bma020_get_bandwidth+0x4a>
    1a78:	29 e1       	ldi	r18, 0x19	; 25
    1a7a:	30 e0       	ldi	r19, 0x00	; 0
    1a7c:	c9 01       	movw	r24, r18
    1a7e:	08 95       	ret

00001a80 <bma020_set_range>:
    1a80:	1f 93       	push	r17
    1a82:	18 2f       	mov	r17, r24
    1a84:	82 30       	cpi	r24, 0x02	; 2
    1a86:	21 f0       	breq	.+8      	; 0x1a90 <bma020_set_range+0x10>
    1a88:	84 30       	cpi	r24, 0x04	; 4
    1a8a:	11 f0       	breq	.+4      	; 0x1a90 <bma020_set_range+0x10>
    1a8c:	88 30       	cpi	r24, 0x08	; 8
    1a8e:	a9 f4       	brne	.+42     	; 0x1aba <bma020_set_range+0x3a>
    1a90:	88 e3       	ldi	r24, 0x38	; 56
    1a92:	64 e1       	ldi	r22, 0x14	; 20
    1a94:	0e 94 5a 08 	call	0x10b4	; 0x10b4 <twi_master_read_register>
    1a98:	48 2f       	mov	r20, r24
    1a9a:	47 7e       	andi	r20, 0xE7	; 231
    1a9c:	12 30       	cpi	r17, 0x02	; 2
    1a9e:	39 f0       	breq	.+14     	; 0x1aae <bma020_set_range+0x2e>
    1aa0:	14 30       	cpi	r17, 0x04	; 4
    1aa2:	11 f4       	brne	.+4      	; 0x1aa8 <bma020_set_range+0x28>
    1aa4:	48 60       	ori	r20, 0x08	; 8
    1aa6:	03 c0       	rjmp	.+6      	; 0x1aae <bma020_set_range+0x2e>
    1aa8:	18 30       	cpi	r17, 0x08	; 8
    1aaa:	09 f4       	brne	.+2      	; 0x1aae <bma020_set_range+0x2e>
    1aac:	40 61       	ori	r20, 0x10	; 16
    1aae:	88 e3       	ldi	r24, 0x38	; 56
    1ab0:	64 e1       	ldi	r22, 0x14	; 20
    1ab2:	0e 94 6d 08 	call	0x10da	; 0x10da <twi_master_write_register>
    1ab6:	81 e0       	ldi	r24, 0x01	; 1
    1ab8:	01 c0       	rjmp	.+2      	; 0x1abc <bma020_set_range+0x3c>
    1aba:	80 e0       	ldi	r24, 0x00	; 0
    1abc:	1f 91       	pop	r17
    1abe:	08 95       	ret

00001ac0 <bma020_get_range>:
    1ac0:	88 e3       	ldi	r24, 0x38	; 56
    1ac2:	64 e1       	ldi	r22, 0x14	; 20
    1ac4:	0e 94 5a 08 	call	0x10b4	; 0x10b4 <twi_master_read_register>
    1ac8:	88 71       	andi	r24, 0x18	; 24
    1aca:	88 30       	cpi	r24, 0x08	; 8
    1acc:	21 f0       	breq	.+8      	; 0x1ad6 <bma020_get_range+0x16>
    1ace:	80 31       	cpi	r24, 0x10	; 16
    1ad0:	21 f4       	brne	.+8      	; 0x1ada <bma020_get_range+0x1a>
    1ad2:	88 e0       	ldi	r24, 0x08	; 8
    1ad4:	08 95       	ret
    1ad6:	84 e0       	ldi	r24, 0x04	; 4
    1ad8:	08 95       	ret
    1ada:	82 e0       	ldi	r24, 0x02	; 2
    1adc:	08 95       	ret

00001ade <bma020_set_customer_reserved_1>:
    1ade:	48 2f       	mov	r20, r24
    1ae0:	88 e3       	ldi	r24, 0x38	; 56
    1ae2:	62 e1       	ldi	r22, 0x12	; 18
    1ae4:	0e 94 6d 08 	call	0x10da	; 0x10da <twi_master_write_register>
    1ae8:	08 95       	ret

00001aea <bma020_get_customer_reserved_1>:
    1aea:	88 e3       	ldi	r24, 0x38	; 56
    1aec:	62 e1       	ldi	r22, 0x12	; 18
    1aee:	0e 94 5a 08 	call	0x10b4	; 0x10b4 <twi_master_read_register>
    1af2:	08 95       	ret

00001af4 <bma020_set_customer_reserved_2>:
    1af4:	48 2f       	mov	r20, r24
    1af6:	88 e3       	ldi	r24, 0x38	; 56
    1af8:	63 e1       	ldi	r22, 0x13	; 19
    1afa:	0e 94 6d 08 	call	0x10da	; 0x10da <twi_master_write_register>
    1afe:	08 95       	ret

00001b00 <bma020_get_customer_reserved_2>:
    1b00:	88 e3       	ldi	r24, 0x38	; 56
    1b02:	63 e1       	ldi	r22, 0x13	; 19
    1b04:	0e 94 5a 08 	call	0x10b4	; 0x10b4 <twi_master_read_register>
    1b08:	08 95       	ret

00001b0a <bma020_init>:
    1b0a:	08 95       	ret

00001b0c <controller_init>:
    1b0c:	83 b7       	in	r24, 0x33	; 51
    1b0e:	88 60       	ori	r24, 0x08	; 8
    1b10:	83 bf       	out	0x33, r24	; 51
    1b12:	83 b7       	in	r24, 0x33	; 51
    1b14:	86 60       	ori	r24, 0x06	; 6
    1b16:	83 bf       	out	0x33, r24	; 51
    1b18:	87 b7       	in	r24, 0x37	; 55
    1b1a:	82 60       	ori	r24, 0x02	; 2
    1b1c:	87 bf       	out	0x37, r24	; 55
    1b1e:	85 e9       	ldi	r24, 0x95	; 149
    1b20:	81 bf       	out	0x31, r24	; 49
    1b22:	08 95       	ret

00001b24 <controller_run>:
    1b24:	bf 92       	push	r11
    1b26:	cf 92       	push	r12
    1b28:	df 92       	push	r13
    1b2a:	ef 92       	push	r14
    1b2c:	ff 92       	push	r15
    1b2e:	0f 93       	push	r16
    1b30:	1f 93       	push	r17
    1b32:	df 93       	push	r29
    1b34:	cf 93       	push	r28
    1b36:	cd b7       	in	r28, 0x3d	; 61
    1b38:	de b7       	in	r29, 0x3e	; 62
    1b3a:	28 97       	sbiw	r28, 0x08	; 8
    1b3c:	0f b6       	in	r0, 0x3f	; 63
    1b3e:	f8 94       	cli
    1b40:	de bf       	out	0x3e, r29	; 62
    1b42:	0f be       	out	0x3f, r0	; 63
    1b44:	cd bf       	out	0x3d, r28	; 61
    1b46:	32 e0       	ldi	r19, 0x02	; 2
    1b48:	d3 2e       	mov	r13, r19
    1b4a:	23 e0       	ldi	r18, 0x03	; 3
    1b4c:	b2 2e       	mov	r11, r18
    1b4e:	93 e0       	ldi	r25, 0x03	; 3
    1b50:	e9 2e       	mov	r14, r25
    1b52:	f1 2c       	mov	r15, r1
    1b54:	ec 0e       	add	r14, r28
    1b56:	fd 1e       	adc	r15, r29
    1b58:	8a e0       	ldi	r24, 0x0A	; 10
    1b5a:	c8 2e       	mov	r12, r24
    1b5c:	8e 01       	movw	r16, r28
    1b5e:	0f 5f       	subi	r16, 0xFF	; 255
    1b60:	1f 4f       	sbci	r17, 0xFF	; 255
    1b62:	80 91 fb 03 	lds	r24, 0x03FB
    1b66:	88 23       	and	r24, r24
    1b68:	e1 f3       	breq	.-8      	; 0x1b62 <controller_run+0x3e>
    1b6a:	10 92 fb 03 	sts	0x03FB, r1
    1b6e:	80 91 fc 03 	lds	r24, 0x03FC
    1b72:	88 23       	and	r24, r24
    1b74:	71 f4       	brne	.+28     	; 0x1b92 <controller_run+0x6e>
    1b76:	85 b3       	in	r24, 0x15	; 21
    1b78:	8b 25       	eor	r24, r11
    1b7a:	85 bb       	out	0x15, r24	; 21
    1b7c:	c7 01       	movw	r24, r14
    1b7e:	0e 94 b5 09 	call	0x136a	; 0x136a <acceleration_get_current_acceleration>
    1b82:	c9 82       	std	Y+1, r12	; 0x01
    1b84:	ca 82       	std	Y+2, r12	; 0x02
    1b86:	c8 01       	movw	r24, r16
    1b88:	0e 94 e0 0e 	call	0x1dc0	; 0x1dc0 <motor_control_prepare_new_speed>
    1b8c:	85 b3       	in	r24, 0x15	; 21
    1b8e:	8d 25       	eor	r24, r13
    1b90:	85 bb       	out	0x15, r24	; 21
    1b92:	80 91 fc 03 	lds	r24, 0x03FC
    1b96:	83 30       	cpi	r24, 0x03	; 3
    1b98:	41 f4       	brne	.+16     	; 0x1baa <controller_run+0x86>
    1b9a:	85 b3       	in	r24, 0x15	; 21
    1b9c:	8d 25       	eor	r24, r13
    1b9e:	85 bb       	out	0x15, r24	; 21
    1ba0:	0e 94 e8 0e 	call	0x1dd0	; 0x1dd0 <motor_control_set_new_speed>
    1ba4:	85 b3       	in	r24, 0x15	; 21
    1ba6:	8d 25       	eor	r24, r13
    1ba8:	85 bb       	out	0x15, r24	; 21
    1baa:	80 91 fc 03 	lds	r24, 0x03FC
    1bae:	d9 cf       	rjmp	.-78     	; 0x1b62 <controller_run+0x3e>

00001bb0 <__vector_15>:
    1bb0:	1f 92       	push	r1
    1bb2:	0f 92       	push	r0
    1bb4:	0f b6       	in	r0, 0x3f	; 63
    1bb6:	0f 92       	push	r0
    1bb8:	11 24       	eor	r1, r1
    1bba:	8f 93       	push	r24
    1bbc:	9f 93       	push	r25
    1bbe:	80 91 fc 03 	lds	r24, 0x03FC
    1bc2:	84 30       	cpi	r24, 0x04	; 4
    1bc4:	38 f0       	brcs	.+14     	; 0x1bd4 <__vector_15+0x24>
    1bc6:	10 92 fc 03 	sts	0x03FC, r1
    1bca:	85 b3       	in	r24, 0x15	; 21
    1bcc:	94 e0       	ldi	r25, 0x04	; 4
    1bce:	89 27       	eor	r24, r25
    1bd0:	85 bb       	out	0x15, r24	; 21
    1bd2:	05 c0       	rjmp	.+10     	; 0x1bde <__vector_15+0x2e>
    1bd4:	80 91 fc 03 	lds	r24, 0x03FC
    1bd8:	8f 5f       	subi	r24, 0xFF	; 255
    1bda:	80 93 fc 03 	sts	0x03FC, r24
    1bde:	81 e0       	ldi	r24, 0x01	; 1
    1be0:	80 93 fb 03 	sts	0x03FB, r24
    1be4:	9f 91       	pop	r25
    1be6:	8f 91       	pop	r24
    1be8:	0f 90       	pop	r0
    1bea:	0f be       	out	0x3f, r0	; 63
    1bec:	0f 90       	pop	r0
    1bee:	1f 90       	pop	r1
    1bf0:	18 95       	reti

00001bf2 <main>:
    1bf2:	8f ef       	ldi	r24, 0xFF	; 255
    1bf4:	84 bb       	out	0x14, r24	; 20
    1bf6:	60 e8       	ldi	r22, 0x80	; 128
    1bf8:	75 e2       	ldi	r23, 0x25	; 37
    1bfa:	80 e0       	ldi	r24, 0x00	; 0
    1bfc:	90 e0       	ldi	r25, 0x00	; 0
    1bfe:	0e 94 91 09 	call	0x1322	; 0x1322 <UART_init>
    1c02:	0e 94 69 07 	call	0xed2	; 0xed2 <twi_master_init>
    1c06:	78 94       	sei
    1c08:	0e 94 59 0a 	call	0x14b2	; 0x14b2 <acceleration_init>
    1c0c:	0e 94 d5 0e 	call	0x1daa	; 0x1daa <motor_control_init>
    1c10:	0e 94 86 0d 	call	0x1b0c	; 0x1b0c <controller_init>
    1c14:	0e 94 92 0d 	call	0x1b24	; 0x1b24 <controller_run>
    1c18:	80 e0       	ldi	r24, 0x00	; 0
    1c1a:	90 e0       	ldi	r25, 0x00	; 0
    1c1c:	08 95       	ret

00001c1e <md25_set_speed>:
    1c1e:	10 92 11 04 	sts	0x0411, r1
    1c22:	80 93 12 04 	sts	0x0412, r24
    1c26:	60 93 13 04 	sts	0x0413, r22
    1c2a:	0e 94 9d 07 	call	0xf3a	; 0xf3a <twi_master_set_ready>
    1c2e:	88 e5       	ldi	r24, 0x58	; 88
    1c30:	63 e0       	ldi	r22, 0x03	; 3
    1c32:	0e 94 78 07 	call	0xef0	; 0xef0 <twi_send_data>
    1c36:	08 95       	ret

00001c38 <md25_set_motor1_speed>:
    1c38:	48 2f       	mov	r20, r24
    1c3a:	88 e5       	ldi	r24, 0x58	; 88
    1c3c:	60 e0       	ldi	r22, 0x00	; 0
    1c3e:	0e 94 6d 08 	call	0x10da	; 0x10da <twi_master_write_register>
    1c42:	08 95       	ret

00001c44 <md25_set_motor2_speed>:
    1c44:	48 2f       	mov	r20, r24
    1c46:	88 e5       	ldi	r24, 0x58	; 88
    1c48:	61 e0       	ldi	r22, 0x01	; 1
    1c4a:	0e 94 6d 08 	call	0x10da	; 0x10da <twi_master_write_register>
    1c4e:	08 95       	ret

00001c50 <md25_get_motor1_speed>:
    1c50:	88 e5       	ldi	r24, 0x58	; 88
    1c52:	60 e0       	ldi	r22, 0x00	; 0
    1c54:	0e 94 5a 08 	call	0x10b4	; 0x10b4 <twi_master_read_register>
    1c58:	08 95       	ret

00001c5a <md25_get_motor2_speed>:
    1c5a:	88 e5       	ldi	r24, 0x58	; 88
    1c5c:	61 e0       	ldi	r22, 0x01	; 1
    1c5e:	0e 94 5a 08 	call	0x10b4	; 0x10b4 <twi_master_read_register>
    1c62:	08 95       	ret

00001c64 <md25_set_acceleration_rate>:
    1c64:	48 2f       	mov	r20, r24
    1c66:	88 e5       	ldi	r24, 0x58	; 88
    1c68:	6e e0       	ldi	r22, 0x0E	; 14
    1c6a:	0e 94 6d 08 	call	0x10da	; 0x10da <twi_master_write_register>
    1c6e:	08 95       	ret

00001c70 <md25_get_acceleration_rate>:
    1c70:	88 e5       	ldi	r24, 0x58	; 88
    1c72:	6e e0       	ldi	r22, 0x0E	; 14
    1c74:	0e 94 5a 08 	call	0x10b4	; 0x10b4 <twi_master_read_register>
    1c78:	08 95       	ret

00001c7a <md25_set_mode>:
    1c7a:	48 2f       	mov	r20, r24
    1c7c:	82 30       	cpi	r24, 0x02	; 2
    1c7e:	20 f0       	brcs	.+8      	; 0x1c88 <md25_set_mode+0xe>
    1c80:	83 30       	cpi	r24, 0x03	; 3
    1c82:	11 f0       	breq	.+4      	; 0x1c88 <md25_set_mode+0xe>
    1c84:	82 30       	cpi	r24, 0x02	; 2
    1c86:	21 f4       	brne	.+8      	; 0x1c90 <md25_set_mode+0x16>
    1c88:	88 e5       	ldi	r24, 0x58	; 88
    1c8a:	6f e0       	ldi	r22, 0x0F	; 15
    1c8c:	0e 94 6d 08 	call	0x10da	; 0x10da <twi_master_write_register>
    1c90:	08 95       	ret

00001c92 <md25_get_mode>:
    1c92:	88 e5       	ldi	r24, 0x58	; 88
    1c94:	6f e0       	ldi	r22, 0x0F	; 15
    1c96:	0e 94 5a 08 	call	0x10b4	; 0x10b4 <twi_master_read_register>
    1c9a:	08 95       	ret

00001c9c <md25_get_motor_encoder>:
    1c9c:	ef 92       	push	r14
    1c9e:	ff 92       	push	r15
    1ca0:	0f 93       	push	r16
    1ca2:	1f 93       	push	r17
    1ca4:	88 23       	and	r24, r24
    1ca6:	11 f4       	brne	.+4      	; 0x1cac <md25_get_motor_encoder+0x10>
    1ca8:	82 e0       	ldi	r24, 0x02	; 2
    1caa:	01 c0       	rjmp	.+2      	; 0x1cae <md25_get_motor_encoder+0x12>
    1cac:	86 e0       	ldi	r24, 0x06	; 6
    1cae:	80 93 11 04 	sts	0x0411, r24
    1cb2:	0e 94 9d 07 	call	0xf3a	; 0xf3a <twi_master_set_ready>
    1cb6:	88 e5       	ldi	r24, 0x58	; 88
    1cb8:	61 e0       	ldi	r22, 0x01	; 1
    1cba:	0e 94 78 07 	call	0xef0	; 0xef0 <twi_send_data>
    1cbe:	88 e5       	ldi	r24, 0x58	; 88
    1cc0:	64 e0       	ldi	r22, 0x04	; 4
    1cc2:	0e 94 8b 07 	call	0xf16	; 0xf16 <twi_receive_data>
    1cc6:	20 91 02 04 	lds	r18, 0x0402
    1cca:	30 e0       	ldi	r19, 0x00	; 0
    1ccc:	40 e0       	ldi	r20, 0x00	; 0
    1cce:	50 e0       	ldi	r21, 0x00	; 0
    1cd0:	52 2f       	mov	r21, r18
    1cd2:	44 27       	eor	r20, r20
    1cd4:	33 27       	eor	r19, r19
    1cd6:	22 27       	eor	r18, r18
    1cd8:	e0 90 03 04 	lds	r14, 0x0403
    1cdc:	e0 91 04 04 	lds	r30, 0x0404
    1ce0:	60 91 05 04 	lds	r22, 0x0405
    1ce4:	ff 24       	eor	r15, r15
    1ce6:	00 e0       	ldi	r16, 0x00	; 0
    1ce8:	10 e0       	ldi	r17, 0x00	; 0
    1cea:	87 01       	movw	r16, r14
    1cec:	ff 24       	eor	r15, r15
    1cee:	ee 24       	eor	r14, r14
    1cf0:	2e 29       	or	r18, r14
    1cf2:	3f 29       	or	r19, r15
    1cf4:	40 2b       	or	r20, r16
    1cf6:	51 2b       	or	r21, r17
    1cf8:	70 e0       	ldi	r23, 0x00	; 0
    1cfa:	80 e0       	ldi	r24, 0x00	; 0
    1cfc:	90 e0       	ldi	r25, 0x00	; 0
    1cfe:	26 2b       	or	r18, r22
    1d00:	37 2b       	or	r19, r23
    1d02:	48 2b       	or	r20, r24
    1d04:	59 2b       	or	r21, r25
    1d06:	8e 2f       	mov	r24, r30
    1d08:	90 e0       	ldi	r25, 0x00	; 0
    1d0a:	a0 e0       	ldi	r26, 0x00	; 0
    1d0c:	b0 e0       	ldi	r27, 0x00	; 0
    1d0e:	ba 2f       	mov	r27, r26
    1d10:	a9 2f       	mov	r26, r25
    1d12:	98 2f       	mov	r25, r24
    1d14:	88 27       	eor	r24, r24
    1d16:	28 2b       	or	r18, r24
    1d18:	39 2b       	or	r19, r25
    1d1a:	4a 2b       	or	r20, r26
    1d1c:	5b 2b       	or	r21, r27
    1d1e:	b9 01       	movw	r22, r18
    1d20:	ca 01       	movw	r24, r20
    1d22:	1f 91       	pop	r17
    1d24:	0f 91       	pop	r16
    1d26:	ff 90       	pop	r15
    1d28:	ef 90       	pop	r14
    1d2a:	08 95       	ret

00001d2c <md25_get_battery_volts>:
    1d2c:	88 e5       	ldi	r24, 0x58	; 88
    1d2e:	6a e0       	ldi	r22, 0x0A	; 10
    1d30:	0e 94 5a 08 	call	0x10b4	; 0x10b4 <twi_master_read_register>
    1d34:	08 95       	ret

00001d36 <md25_get_motor_current>:
    1d36:	88 23       	and	r24, r24
    1d38:	29 f4       	brne	.+10     	; 0x1d44 <md25_get_motor_current+0xe>
    1d3a:	88 e5       	ldi	r24, 0x58	; 88
    1d3c:	6b e0       	ldi	r22, 0x0B	; 11
    1d3e:	0e 94 5a 08 	call	0x10b4	; 0x10b4 <twi_master_read_register>
    1d42:	08 95       	ret
    1d44:	88 e5       	ldi	r24, 0x58	; 88
    1d46:	6b e0       	ldi	r22, 0x0B	; 11
    1d48:	0e 94 5a 08 	call	0x10b4	; 0x10b4 <twi_master_read_register>
    1d4c:	08 95       	ret

00001d4e <md25_get_software_revision>:
    1d4e:	88 e5       	ldi	r24, 0x58	; 88
    1d50:	6d e0       	ldi	r22, 0x0D	; 13
    1d52:	0e 94 5a 08 	call	0x10b4	; 0x10b4 <twi_master_read_register>
    1d56:	08 95       	ret

00001d58 <md25_cmd_reset_encoders>:
    1d58:	88 e5       	ldi	r24, 0x58	; 88
    1d5a:	60 e1       	ldi	r22, 0x10	; 16
    1d5c:	40 e2       	ldi	r20, 0x20	; 32
    1d5e:	0e 94 6d 08 	call	0x10da	; 0x10da <twi_master_write_register>
    1d62:	08 95       	ret

00001d64 <md25_cmd_enable_speed_regulation>:
    1d64:	88 23       	and	r24, r24
    1d66:	21 f0       	breq	.+8      	; 0x1d70 <md25_cmd_enable_speed_regulation+0xc>
    1d68:	88 e5       	ldi	r24, 0x58	; 88
    1d6a:	60 e1       	ldi	r22, 0x10	; 16
    1d6c:	41 e3       	ldi	r20, 0x31	; 49
    1d6e:	03 c0       	rjmp	.+6      	; 0x1d76 <md25_cmd_enable_speed_regulation+0x12>
    1d70:	88 e5       	ldi	r24, 0x58	; 88
    1d72:	60 e1       	ldi	r22, 0x10	; 16
    1d74:	40 e3       	ldi	r20, 0x30	; 48
    1d76:	0e 94 6d 08 	call	0x10da	; 0x10da <twi_master_write_register>
    1d7a:	08 95       	ret

00001d7c <md25_cmd_enable_i2c_timout>:
    1d7c:	88 23       	and	r24, r24
    1d7e:	21 f0       	breq	.+8      	; 0x1d88 <md25_cmd_enable_i2c_timout+0xc>
    1d80:	88 e5       	ldi	r24, 0x58	; 88
    1d82:	60 e1       	ldi	r22, 0x10	; 16
    1d84:	43 e3       	ldi	r20, 0x33	; 51
    1d86:	03 c0       	rjmp	.+6      	; 0x1d8e <md25_cmd_enable_i2c_timout+0x12>
    1d88:	88 e5       	ldi	r24, 0x58	; 88
    1d8a:	60 e1       	ldi	r22, 0x10	; 16
    1d8c:	42 e3       	ldi	r20, 0x32	; 50
    1d8e:	0e 94 6d 08 	call	0x10da	; 0x10da <twi_master_write_register>
    1d92:	08 95       	ret

00001d94 <md25_init>:
    1d94:	81 e0       	ldi	r24, 0x01	; 1
    1d96:	0e 94 3d 0e 	call	0x1c7a	; 0x1c7a <md25_set_mode>
    1d9a:	8a e0       	ldi	r24, 0x0A	; 10
    1d9c:	0e 94 32 0e 	call	0x1c64	; 0x1c64 <md25_set_acceleration_rate>
    1da0:	80 e0       	ldi	r24, 0x00	; 0
    1da2:	60 e0       	ldi	r22, 0x00	; 0
    1da4:	0e 94 0f 0e 	call	0x1c1e	; 0x1c1e <md25_set_speed>
    1da8:	08 95       	ret

00001daa <motor_control_init>:
    1daa:	10 92 ff 03 	sts	0x03FF, r1
    1dae:	10 92 00 04 	sts	0x0400, r1
    1db2:	10 92 fd 03 	sts	0x03FD, r1
    1db6:	10 92 fe 03 	sts	0x03FE, r1
    1dba:	0e 94 ca 0e 	call	0x1d94	; 0x1d94 <md25_init>
    1dbe:	08 95       	ret

00001dc0 <motor_control_prepare_new_speed>:
    1dc0:	fc 01       	movw	r30, r24
    1dc2:	80 81       	ld	r24, Z
    1dc4:	80 93 fd 03 	sts	0x03FD, r24
    1dc8:	81 81       	ldd	r24, Z+1	; 0x01
    1dca:	80 93 fe 03 	sts	0x03FE, r24
    1dce:	08 95       	ret

00001dd0 <motor_control_set_new_speed>:
    1dd0:	80 91 fd 03 	lds	r24, 0x03FD
    1dd4:	60 91 fe 03 	lds	r22, 0x03FE
    1dd8:	0e 94 0f 0e 	call	0x1c1e	; 0x1c1e <md25_set_speed>
    1ddc:	80 91 fd 03 	lds	r24, 0x03FD
    1de0:	80 93 ff 03 	sts	0x03FF, r24
    1de4:	80 91 fe 03 	lds	r24, 0x03FE
    1de8:	80 93 00 04 	sts	0x0400, r24
    1dec:	08 95       	ret

00001dee <motor_control_get_current_speed>:
    1dee:	fc 01       	movw	r30, r24
    1df0:	80 91 ff 03 	lds	r24, 0x03FF
    1df4:	80 83       	st	Z, r24
    1df6:	80 91 00 04 	lds	r24, 0x0400
    1dfa:	81 83       	std	Z+1, r24	; 0x01
    1dfc:	08 95       	ret

00001dfe <motor_control_get_new_speed>:
    1dfe:	fc 01       	movw	r30, r24
    1e00:	80 91 fd 03 	lds	r24, 0x03FD
    1e04:	80 83       	st	Z, r24
    1e06:	80 91 fe 03 	lds	r24, 0x03FE
    1e0a:	81 83       	std	Z+1, r24	; 0x01
    1e0c:	08 95       	ret

00001e0e <moving_average_simple_put_element>:
    1e0e:	1f 93       	push	r17
    1e10:	cf 93       	push	r28
    1e12:	df 93       	push	r29
    1e14:	ec 01       	movw	r28, r24
    1e16:	db 01       	movw	r26, r22
    1e18:	18 89       	ldd	r17, Y+16	; 0x10
    1e1a:	e1 2f       	mov	r30, r17
    1e1c:	ff 27       	eor	r31, r31
    1e1e:	e7 fd       	sbrc	r30, 7
    1e20:	f0 95       	com	r31
    1e22:	bd 01       	movw	r22, r26
    1e24:	88 27       	eor	r24, r24
    1e26:	77 fd       	sbrc	r23, 7
    1e28:	80 95       	com	r24
    1e2a:	98 2f       	mov	r25, r24
    1e2c:	ee 0f       	add	r30, r30
    1e2e:	ff 1f       	adc	r31, r31
    1e30:	ec 0f       	add	r30, r28
    1e32:	fd 1f       	adc	r31, r29
    1e34:	20 81       	ld	r18, Z
    1e36:	31 81       	ldd	r19, Z+1	; 0x01
    1e38:	44 27       	eor	r20, r20
    1e3a:	37 fd       	sbrc	r19, 7
    1e3c:	40 95       	com	r20
    1e3e:	54 2f       	mov	r21, r20
    1e40:	62 1b       	sub	r22, r18
    1e42:	73 0b       	sbc	r23, r19
    1e44:	84 0b       	sbc	r24, r20
    1e46:	95 0b       	sbc	r25, r21
    1e48:	29 89       	ldd	r18, Y+17	; 0x11
    1e4a:	3a 89       	ldd	r19, Y+18	; 0x12
    1e4c:	4b 89       	ldd	r20, Y+19	; 0x13
    1e4e:	5c 89       	ldd	r21, Y+20	; 0x14
    1e50:	62 0f       	add	r22, r18
    1e52:	73 1f       	adc	r23, r19
    1e54:	84 1f       	adc	r24, r20
    1e56:	95 1f       	adc	r25, r21
    1e58:	69 8b       	std	Y+17, r22	; 0x11
    1e5a:	7a 8b       	std	Y+18, r23	; 0x12
    1e5c:	8b 8b       	std	Y+19, r24	; 0x13
    1e5e:	9c 8b       	std	Y+20, r25	; 0x14
    1e60:	b1 83       	std	Z+1, r27	; 0x01
    1e62:	a0 83       	st	Z, r26
    1e64:	28 e0       	ldi	r18, 0x08	; 8
    1e66:	30 e0       	ldi	r19, 0x00	; 0
    1e68:	40 e0       	ldi	r20, 0x00	; 0
    1e6a:	50 e0       	ldi	r21, 0x00	; 0
    1e6c:	0e 94 4e 15 	call	0x2a9c	; 0x2a9c <__divmodsi4>
    1e70:	3e 8b       	std	Y+22, r19	; 0x16
    1e72:	2d 8b       	std	Y+21, r18	; 0x15
    1e74:	17 30       	cpi	r17, 0x07	; 7
    1e76:	1c f4       	brge	.+6      	; 0x1e7e <moving_average_simple_put_element+0x70>
    1e78:	1f 5f       	subi	r17, 0xFF	; 255
    1e7a:	18 8b       	std	Y+16, r17	; 0x10
    1e7c:	01 c0       	rjmp	.+2      	; 0x1e80 <moving_average_simple_put_element+0x72>
    1e7e:	18 8a       	std	Y+16, r1	; 0x10
    1e80:	df 91       	pop	r29
    1e82:	cf 91       	pop	r28
    1e84:	1f 91       	pop	r17
    1e86:	08 95       	ret

00001e88 <vfprintf>:
    1e88:	a3 e1       	ldi	r26, 0x13	; 19
    1e8a:	b0 e0       	ldi	r27, 0x00	; 0
    1e8c:	ea e4       	ldi	r30, 0x4A	; 74
    1e8e:	ff e0       	ldi	r31, 0x0F	; 15
    1e90:	0c 94 69 15 	jmp	0x2ad2	; 0x2ad2 <__prologue_saves__>
    1e94:	6c 01       	movw	r12, r24
    1e96:	7f 87       	std	Y+15, r23	; 0x0f
    1e98:	6e 87       	std	Y+14, r22	; 0x0e
    1e9a:	fc 01       	movw	r30, r24
    1e9c:	17 82       	std	Z+7, r1	; 0x07
    1e9e:	16 82       	std	Z+6, r1	; 0x06
    1ea0:	83 81       	ldd	r24, Z+3	; 0x03
    1ea2:	81 fd       	sbrc	r24, 1
    1ea4:	04 c0       	rjmp	.+8      	; 0x1eae <vfprintf+0x26>
    1ea6:	6f c3       	rjmp	.+1758   	; 0x2586 <vfprintf+0x6fe>
    1ea8:	4c 85       	ldd	r20, Y+12	; 0x0c
    1eaa:	5d 85       	ldd	r21, Y+13	; 0x0d
    1eac:	04 c0       	rjmp	.+8      	; 0x1eb6 <vfprintf+0x2e>
    1eae:	1e 01       	movw	r2, r28
    1eb0:	08 94       	sec
    1eb2:	21 1c       	adc	r2, r1
    1eb4:	31 1c       	adc	r3, r1
    1eb6:	f6 01       	movw	r30, r12
    1eb8:	93 81       	ldd	r25, Z+3	; 0x03
    1eba:	ee 85       	ldd	r30, Y+14	; 0x0e
    1ebc:	ff 85       	ldd	r31, Y+15	; 0x0f
    1ebe:	93 fd       	sbrc	r25, 3
    1ec0:	85 91       	lpm	r24, Z+
    1ec2:	93 ff       	sbrs	r25, 3
    1ec4:	81 91       	ld	r24, Z+
    1ec6:	ff 87       	std	Y+15, r31	; 0x0f
    1ec8:	ee 87       	std	Y+14, r30	; 0x0e
    1eca:	88 23       	and	r24, r24
    1ecc:	09 f4       	brne	.+2      	; 0x1ed0 <vfprintf+0x48>
    1ece:	57 c3       	rjmp	.+1710   	; 0x257e <vfprintf+0x6f6>
    1ed0:	85 32       	cpi	r24, 0x25	; 37
    1ed2:	41 f4       	brne	.+16     	; 0x1ee4 <vfprintf+0x5c>
    1ed4:	93 fd       	sbrc	r25, 3
    1ed6:	85 91       	lpm	r24, Z+
    1ed8:	93 ff       	sbrs	r25, 3
    1eda:	81 91       	ld	r24, Z+
    1edc:	ff 87       	std	Y+15, r31	; 0x0f
    1ede:	ee 87       	std	Y+14, r30	; 0x0e
    1ee0:	85 32       	cpi	r24, 0x25	; 37
    1ee2:	59 f4       	brne	.+22     	; 0x1efa <vfprintf+0x72>
    1ee4:	90 e0       	ldi	r25, 0x00	; 0
    1ee6:	b6 01       	movw	r22, r12
    1ee8:	4a 8b       	std	Y+18, r20	; 0x12
    1eea:	5b 8b       	std	Y+19, r21	; 0x13
    1eec:	0e 94 a2 16 	call	0x2d44	; 0x2d44 <fputc>
    1ef0:	4a 89       	ldd	r20, Y+18	; 0x12
    1ef2:	5b 89       	ldd	r21, Y+19	; 0x13
    1ef4:	5d 87       	std	Y+13, r21	; 0x0d
    1ef6:	4c 87       	std	Y+12, r20	; 0x0c
    1ef8:	d7 cf       	rjmp	.-82     	; 0x1ea8 <vfprintf+0x20>
    1efa:	10 e0       	ldi	r17, 0x00	; 0
    1efc:	ff 24       	eor	r15, r15
    1efe:	00 e0       	ldi	r16, 0x00	; 0
    1f00:	00 32       	cpi	r16, 0x20	; 32
    1f02:	b0 f4       	brcc	.+44     	; 0x1f30 <vfprintf+0xa8>
    1f04:	8b 32       	cpi	r24, 0x2B	; 43
    1f06:	69 f0       	breq	.+26     	; 0x1f22 <vfprintf+0x9a>
    1f08:	8c 32       	cpi	r24, 0x2C	; 44
    1f0a:	28 f4       	brcc	.+10     	; 0x1f16 <vfprintf+0x8e>
    1f0c:	80 32       	cpi	r24, 0x20	; 32
    1f0e:	51 f0       	breq	.+20     	; 0x1f24 <vfprintf+0x9c>
    1f10:	83 32       	cpi	r24, 0x23	; 35
    1f12:	71 f4       	brne	.+28     	; 0x1f30 <vfprintf+0xa8>
    1f14:	0b c0       	rjmp	.+22     	; 0x1f2c <vfprintf+0xa4>
    1f16:	8d 32       	cpi	r24, 0x2D	; 45
    1f18:	39 f0       	breq	.+14     	; 0x1f28 <vfprintf+0xa0>
    1f1a:	80 33       	cpi	r24, 0x30	; 48
    1f1c:	49 f4       	brne	.+18     	; 0x1f30 <vfprintf+0xa8>
    1f1e:	01 60       	ori	r16, 0x01	; 1
    1f20:	2c c0       	rjmp	.+88     	; 0x1f7a <vfprintf+0xf2>
    1f22:	02 60       	ori	r16, 0x02	; 2
    1f24:	04 60       	ori	r16, 0x04	; 4
    1f26:	29 c0       	rjmp	.+82     	; 0x1f7a <vfprintf+0xf2>
    1f28:	08 60       	ori	r16, 0x08	; 8
    1f2a:	27 c0       	rjmp	.+78     	; 0x1f7a <vfprintf+0xf2>
    1f2c:	00 61       	ori	r16, 0x10	; 16
    1f2e:	25 c0       	rjmp	.+74     	; 0x1f7a <vfprintf+0xf2>
    1f30:	07 fd       	sbrc	r16, 7
    1f32:	2e c0       	rjmp	.+92     	; 0x1f90 <vfprintf+0x108>
    1f34:	28 2f       	mov	r18, r24
    1f36:	20 53       	subi	r18, 0x30	; 48
    1f38:	2a 30       	cpi	r18, 0x0A	; 10
    1f3a:	98 f4       	brcc	.+38     	; 0x1f62 <vfprintf+0xda>
    1f3c:	06 ff       	sbrs	r16, 6
    1f3e:	08 c0       	rjmp	.+16     	; 0x1f50 <vfprintf+0xc8>
    1f40:	81 2f       	mov	r24, r17
    1f42:	88 0f       	add	r24, r24
    1f44:	18 2f       	mov	r17, r24
    1f46:	11 0f       	add	r17, r17
    1f48:	11 0f       	add	r17, r17
    1f4a:	18 0f       	add	r17, r24
    1f4c:	12 0f       	add	r17, r18
    1f4e:	15 c0       	rjmp	.+42     	; 0x1f7a <vfprintf+0xf2>
    1f50:	8f 2d       	mov	r24, r15
    1f52:	88 0f       	add	r24, r24
    1f54:	f8 2e       	mov	r15, r24
    1f56:	ff 0c       	add	r15, r15
    1f58:	ff 0c       	add	r15, r15
    1f5a:	f8 0e       	add	r15, r24
    1f5c:	f2 0e       	add	r15, r18
    1f5e:	00 62       	ori	r16, 0x20	; 32
    1f60:	0c c0       	rjmp	.+24     	; 0x1f7a <vfprintf+0xf2>
    1f62:	8e 32       	cpi	r24, 0x2E	; 46
    1f64:	21 f4       	brne	.+8      	; 0x1f6e <vfprintf+0xe6>
    1f66:	06 fd       	sbrc	r16, 6
    1f68:	0a c3       	rjmp	.+1556   	; 0x257e <vfprintf+0x6f6>
    1f6a:	00 64       	ori	r16, 0x40	; 64
    1f6c:	06 c0       	rjmp	.+12     	; 0x1f7a <vfprintf+0xf2>
    1f6e:	8c 36       	cpi	r24, 0x6C	; 108
    1f70:	11 f4       	brne	.+4      	; 0x1f76 <vfprintf+0xee>
    1f72:	00 68       	ori	r16, 0x80	; 128
    1f74:	02 c0       	rjmp	.+4      	; 0x1f7a <vfprintf+0xf2>
    1f76:	88 36       	cpi	r24, 0x68	; 104
    1f78:	59 f4       	brne	.+22     	; 0x1f90 <vfprintf+0x108>
    1f7a:	ee 85       	ldd	r30, Y+14	; 0x0e
    1f7c:	ff 85       	ldd	r31, Y+15	; 0x0f
    1f7e:	93 fd       	sbrc	r25, 3
    1f80:	85 91       	lpm	r24, Z+
    1f82:	93 ff       	sbrs	r25, 3
    1f84:	81 91       	ld	r24, Z+
    1f86:	ff 87       	std	Y+15, r31	; 0x0f
    1f88:	ee 87       	std	Y+14, r30	; 0x0e
    1f8a:	88 23       	and	r24, r24
    1f8c:	09 f0       	breq	.+2      	; 0x1f90 <vfprintf+0x108>
    1f8e:	b8 cf       	rjmp	.-144    	; 0x1f00 <vfprintf+0x78>
    1f90:	98 2f       	mov	r25, r24
    1f92:	95 54       	subi	r25, 0x45	; 69
    1f94:	93 30       	cpi	r25, 0x03	; 3
    1f96:	18 f4       	brcc	.+6      	; 0x1f9e <vfprintf+0x116>
    1f98:	00 61       	ori	r16, 0x10	; 16
    1f9a:	80 5e       	subi	r24, 0xE0	; 224
    1f9c:	06 c0       	rjmp	.+12     	; 0x1faa <vfprintf+0x122>
    1f9e:	98 2f       	mov	r25, r24
    1fa0:	95 56       	subi	r25, 0x65	; 101
    1fa2:	93 30       	cpi	r25, 0x03	; 3
    1fa4:	08 f0       	brcs	.+2      	; 0x1fa8 <vfprintf+0x120>
    1fa6:	9b c1       	rjmp	.+822    	; 0x22de <vfprintf+0x456>
    1fa8:	0f 7e       	andi	r16, 0xEF	; 239
    1faa:	06 ff       	sbrs	r16, 6
    1fac:	16 e0       	ldi	r17, 0x06	; 6
    1fae:	6f e3       	ldi	r22, 0x3F	; 63
    1fb0:	e6 2e       	mov	r14, r22
    1fb2:	e0 22       	and	r14, r16
    1fb4:	85 36       	cpi	r24, 0x65	; 101
    1fb6:	19 f4       	brne	.+6      	; 0x1fbe <vfprintf+0x136>
    1fb8:	f0 e4       	ldi	r31, 0x40	; 64
    1fba:	ef 2a       	or	r14, r31
    1fbc:	07 c0       	rjmp	.+14     	; 0x1fcc <vfprintf+0x144>
    1fbe:	86 36       	cpi	r24, 0x66	; 102
    1fc0:	19 f4       	brne	.+6      	; 0x1fc8 <vfprintf+0x140>
    1fc2:	20 e8       	ldi	r18, 0x80	; 128
    1fc4:	e2 2a       	or	r14, r18
    1fc6:	02 c0       	rjmp	.+4      	; 0x1fcc <vfprintf+0x144>
    1fc8:	11 11       	cpse	r17, r1
    1fca:	11 50       	subi	r17, 0x01	; 1
    1fcc:	e7 fe       	sbrs	r14, 7
    1fce:	06 c0       	rjmp	.+12     	; 0x1fdc <vfprintf+0x154>
    1fd0:	1c 33       	cpi	r17, 0x3C	; 60
    1fd2:	40 f4       	brcc	.+16     	; 0x1fe4 <vfprintf+0x15c>
    1fd4:	91 2e       	mov	r9, r17
    1fd6:	93 94       	inc	r9
    1fd8:	27 e0       	ldi	r18, 0x07	; 7
    1fda:	0b c0       	rjmp	.+22     	; 0x1ff2 <vfprintf+0x16a>
    1fdc:	18 30       	cpi	r17, 0x08	; 8
    1fde:	30 f4       	brcc	.+12     	; 0x1fec <vfprintf+0x164>
    1fe0:	21 2f       	mov	r18, r17
    1fe2:	06 c0       	rjmp	.+12     	; 0x1ff0 <vfprintf+0x168>
    1fe4:	27 e0       	ldi	r18, 0x07	; 7
    1fe6:	3c e3       	ldi	r19, 0x3C	; 60
    1fe8:	93 2e       	mov	r9, r19
    1fea:	03 c0       	rjmp	.+6      	; 0x1ff2 <vfprintf+0x16a>
    1fec:	27 e0       	ldi	r18, 0x07	; 7
    1fee:	17 e0       	ldi	r17, 0x07	; 7
    1ff0:	99 24       	eor	r9, r9
    1ff2:	ca 01       	movw	r24, r20
    1ff4:	04 96       	adiw	r24, 0x04	; 4
    1ff6:	9d 87       	std	Y+13, r25	; 0x0d
    1ff8:	8c 87       	std	Y+12, r24	; 0x0c
    1ffa:	fa 01       	movw	r30, r20
    1ffc:	60 81       	ld	r22, Z
    1ffe:	71 81       	ldd	r23, Z+1	; 0x01
    2000:	82 81       	ldd	r24, Z+2	; 0x02
    2002:	93 81       	ldd	r25, Z+3	; 0x03
    2004:	a1 01       	movw	r20, r2
    2006:	09 2d       	mov	r16, r9
    2008:	0e 94 b4 15 	call	0x2b68	; 0x2b68 <__ftoa_engine>
    200c:	5c 01       	movw	r10, r24
    200e:	69 80       	ldd	r6, Y+1	; 0x01
    2010:	26 2d       	mov	r18, r6
    2012:	30 e0       	ldi	r19, 0x00	; 0
    2014:	39 8b       	std	Y+17, r19	; 0x11
    2016:	28 8b       	std	Y+16, r18	; 0x10
    2018:	60 fe       	sbrs	r6, 0
    201a:	03 c0       	rjmp	.+6      	; 0x2022 <vfprintf+0x19a>
    201c:	38 89       	ldd	r19, Y+16	; 0x10
    201e:	33 ff       	sbrs	r19, 3
    2020:	06 c0       	rjmp	.+12     	; 0x202e <vfprintf+0x1a6>
    2022:	e1 fc       	sbrc	r14, 1
    2024:	06 c0       	rjmp	.+12     	; 0x2032 <vfprintf+0x1aa>
    2026:	e2 fe       	sbrs	r14, 2
    2028:	06 c0       	rjmp	.+12     	; 0x2036 <vfprintf+0x1ae>
    202a:	00 e2       	ldi	r16, 0x20	; 32
    202c:	05 c0       	rjmp	.+10     	; 0x2038 <vfprintf+0x1b0>
    202e:	0d e2       	ldi	r16, 0x2D	; 45
    2030:	03 c0       	rjmp	.+6      	; 0x2038 <vfprintf+0x1b0>
    2032:	0b e2       	ldi	r16, 0x2B	; 43
    2034:	01 c0       	rjmp	.+2      	; 0x2038 <vfprintf+0x1b0>
    2036:	00 e0       	ldi	r16, 0x00	; 0
    2038:	88 89       	ldd	r24, Y+16	; 0x10
    203a:	99 89       	ldd	r25, Y+17	; 0x11
    203c:	8c 70       	andi	r24, 0x0C	; 12
    203e:	90 70       	andi	r25, 0x00	; 0
    2040:	00 97       	sbiw	r24, 0x00	; 0
    2042:	c1 f1       	breq	.+112    	; 0x20b4 <vfprintf+0x22c>
    2044:	00 23       	and	r16, r16
    2046:	11 f0       	breq	.+4      	; 0x204c <vfprintf+0x1c4>
    2048:	84 e0       	ldi	r24, 0x04	; 4
    204a:	01 c0       	rjmp	.+2      	; 0x204e <vfprintf+0x1c6>
    204c:	83 e0       	ldi	r24, 0x03	; 3
    204e:	8f 15       	cp	r24, r15
    2050:	58 f4       	brcc	.+22     	; 0x2068 <vfprintf+0x1e0>
    2052:	f8 1a       	sub	r15, r24
    2054:	e3 fc       	sbrc	r14, 3
    2056:	09 c0       	rjmp	.+18     	; 0x206a <vfprintf+0x1e2>
    2058:	80 e2       	ldi	r24, 0x20	; 32
    205a:	90 e0       	ldi	r25, 0x00	; 0
    205c:	b6 01       	movw	r22, r12
    205e:	0e 94 a2 16 	call	0x2d44	; 0x2d44 <fputc>
    2062:	fa 94       	dec	r15
    2064:	c9 f7       	brne	.-14     	; 0x2058 <vfprintf+0x1d0>
    2066:	01 c0       	rjmp	.+2      	; 0x206a <vfprintf+0x1e2>
    2068:	ff 24       	eor	r15, r15
    206a:	00 23       	and	r16, r16
    206c:	29 f0       	breq	.+10     	; 0x2078 <vfprintf+0x1f0>
    206e:	80 2f       	mov	r24, r16
    2070:	90 e0       	ldi	r25, 0x00	; 0
    2072:	b6 01       	movw	r22, r12
    2074:	0e 94 a2 16 	call	0x2d44	; 0x2d44 <fputc>
    2078:	88 89       	ldd	r24, Y+16	; 0x10
    207a:	83 fd       	sbrc	r24, 3
    207c:	03 c0       	rjmp	.+6      	; 0x2084 <vfprintf+0x1fc>
    207e:	0d eb       	ldi	r16, 0xBD	; 189
    2080:	10 e0       	ldi	r17, 0x00	; 0
    2082:	0e c0       	rjmp	.+28     	; 0x20a0 <vfprintf+0x218>
    2084:	09 eb       	ldi	r16, 0xB9	; 185
    2086:	10 e0       	ldi	r17, 0x00	; 0
    2088:	0b c0       	rjmp	.+22     	; 0x20a0 <vfprintf+0x218>
    208a:	a1 14       	cp	r10, r1
    208c:	b1 04       	cpc	r11, r1
    208e:	09 f0       	breq	.+2      	; 0x2092 <vfprintf+0x20a>
    2090:	80 52       	subi	r24, 0x20	; 32
    2092:	90 e0       	ldi	r25, 0x00	; 0
    2094:	b6 01       	movw	r22, r12
    2096:	0e 94 a2 16 	call	0x2d44	; 0x2d44 <fputc>
    209a:	0f 5f       	subi	r16, 0xFF	; 255
    209c:	1f 4f       	sbci	r17, 0xFF	; 255
    209e:	05 c0       	rjmp	.+10     	; 0x20aa <vfprintf+0x222>
    20a0:	ae 2c       	mov	r10, r14
    20a2:	bb 24       	eor	r11, r11
    20a4:	90 e1       	ldi	r25, 0x10	; 16
    20a6:	a9 22       	and	r10, r25
    20a8:	bb 24       	eor	r11, r11
    20aa:	f8 01       	movw	r30, r16
    20ac:	84 91       	lpm	r24, Z+
    20ae:	88 23       	and	r24, r24
    20b0:	61 f7       	brne	.-40     	; 0x208a <vfprintf+0x202>
    20b2:	62 c2       	rjmp	.+1220   	; 0x2578 <vfprintf+0x6f0>
    20b4:	e7 fe       	sbrs	r14, 7
    20b6:	0e c0       	rjmp	.+28     	; 0x20d4 <vfprintf+0x24c>
    20b8:	9a 0c       	add	r9, r10
    20ba:	f8 89       	ldd	r31, Y+16	; 0x10
    20bc:	f4 ff       	sbrs	r31, 4
    20be:	04 c0       	rjmp	.+8      	; 0x20c8 <vfprintf+0x240>
    20c0:	8a 81       	ldd	r24, Y+2	; 0x02
    20c2:	81 33       	cpi	r24, 0x31	; 49
    20c4:	09 f4       	brne	.+2      	; 0x20c8 <vfprintf+0x240>
    20c6:	9a 94       	dec	r9
    20c8:	19 14       	cp	r1, r9
    20ca:	54 f5       	brge	.+84     	; 0x2120 <vfprintf+0x298>
    20cc:	29 2d       	mov	r18, r9
    20ce:	29 30       	cpi	r18, 0x09	; 9
    20d0:	50 f5       	brcc	.+84     	; 0x2126 <vfprintf+0x29e>
    20d2:	2d c0       	rjmp	.+90     	; 0x212e <vfprintf+0x2a6>
    20d4:	e6 fc       	sbrc	r14, 6
    20d6:	2b c0       	rjmp	.+86     	; 0x212e <vfprintf+0x2a6>
    20d8:	81 2f       	mov	r24, r17
    20da:	90 e0       	ldi	r25, 0x00	; 0
    20dc:	8a 15       	cp	r24, r10
    20de:	9b 05       	cpc	r25, r11
    20e0:	4c f0       	brlt	.+18     	; 0x20f4 <vfprintf+0x26c>
    20e2:	3c ef       	ldi	r19, 0xFC	; 252
    20e4:	a3 16       	cp	r10, r19
    20e6:	3f ef       	ldi	r19, 0xFF	; 255
    20e8:	b3 06       	cpc	r11, r19
    20ea:	24 f0       	brlt	.+8      	; 0x20f4 <vfprintf+0x26c>
    20ec:	80 e8       	ldi	r24, 0x80	; 128
    20ee:	e8 2a       	or	r14, r24
    20f0:	01 c0       	rjmp	.+2      	; 0x20f4 <vfprintf+0x26c>
    20f2:	11 50       	subi	r17, 0x01	; 1
    20f4:	11 23       	and	r17, r17
    20f6:	49 f0       	breq	.+18     	; 0x210a <vfprintf+0x282>
    20f8:	e2 e0       	ldi	r30, 0x02	; 2
    20fa:	f0 e0       	ldi	r31, 0x00	; 0
    20fc:	ec 0f       	add	r30, r28
    20fe:	fd 1f       	adc	r31, r29
    2100:	e1 0f       	add	r30, r17
    2102:	f1 1d       	adc	r31, r1
    2104:	80 81       	ld	r24, Z
    2106:	80 33       	cpi	r24, 0x30	; 48
    2108:	a1 f3       	breq	.-24     	; 0x20f2 <vfprintf+0x26a>
    210a:	e7 fe       	sbrs	r14, 7
    210c:	10 c0       	rjmp	.+32     	; 0x212e <vfprintf+0x2a6>
    210e:	91 2e       	mov	r9, r17
    2110:	93 94       	inc	r9
    2112:	81 2f       	mov	r24, r17
    2114:	90 e0       	ldi	r25, 0x00	; 0
    2116:	a8 16       	cp	r10, r24
    2118:	b9 06       	cpc	r11, r25
    211a:	44 f4       	brge	.+16     	; 0x212c <vfprintf+0x2a4>
    211c:	1a 19       	sub	r17, r10
    211e:	07 c0       	rjmp	.+14     	; 0x212e <vfprintf+0x2a6>
    2120:	99 24       	eor	r9, r9
    2122:	93 94       	inc	r9
    2124:	04 c0       	rjmp	.+8      	; 0x212e <vfprintf+0x2a6>
    2126:	98 e0       	ldi	r25, 0x08	; 8
    2128:	99 2e       	mov	r9, r25
    212a:	01 c0       	rjmp	.+2      	; 0x212e <vfprintf+0x2a6>
    212c:	10 e0       	ldi	r17, 0x00	; 0
    212e:	e7 fe       	sbrs	r14, 7
    2130:	07 c0       	rjmp	.+14     	; 0x2140 <vfprintf+0x2b8>
    2132:	1a 14       	cp	r1, r10
    2134:	1b 04       	cpc	r1, r11
    2136:	3c f4       	brge	.+14     	; 0x2146 <vfprintf+0x2be>
    2138:	95 01       	movw	r18, r10
    213a:	2f 5f       	subi	r18, 0xFF	; 255
    213c:	3f 4f       	sbci	r19, 0xFF	; 255
    213e:	05 c0       	rjmp	.+10     	; 0x214a <vfprintf+0x2c2>
    2140:	25 e0       	ldi	r18, 0x05	; 5
    2142:	30 e0       	ldi	r19, 0x00	; 0
    2144:	02 c0       	rjmp	.+4      	; 0x214a <vfprintf+0x2c2>
    2146:	21 e0       	ldi	r18, 0x01	; 1
    2148:	30 e0       	ldi	r19, 0x00	; 0
    214a:	00 23       	and	r16, r16
    214c:	11 f0       	breq	.+4      	; 0x2152 <vfprintf+0x2ca>
    214e:	2f 5f       	subi	r18, 0xFF	; 255
    2150:	3f 4f       	sbci	r19, 0xFF	; 255
    2152:	11 23       	and	r17, r17
    2154:	29 f0       	breq	.+10     	; 0x2160 <vfprintf+0x2d8>
    2156:	81 2f       	mov	r24, r17
    2158:	90 e0       	ldi	r25, 0x00	; 0
    215a:	01 96       	adiw	r24, 0x01	; 1
    215c:	28 0f       	add	r18, r24
    215e:	39 1f       	adc	r19, r25
    2160:	8f 2d       	mov	r24, r15
    2162:	90 e0       	ldi	r25, 0x00	; 0
    2164:	28 17       	cp	r18, r24
    2166:	39 07       	cpc	r19, r25
    2168:	14 f4       	brge	.+4      	; 0x216e <vfprintf+0x2e6>
    216a:	f2 1a       	sub	r15, r18
    216c:	01 c0       	rjmp	.+2      	; 0x2170 <vfprintf+0x2e8>
    216e:	ff 24       	eor	r15, r15
    2170:	4e 2c       	mov	r4, r14
    2172:	55 24       	eor	r5, r5
    2174:	c2 01       	movw	r24, r4
    2176:	89 70       	andi	r24, 0x09	; 9
    2178:	90 70       	andi	r25, 0x00	; 0
    217a:	00 97       	sbiw	r24, 0x00	; 0
    217c:	49 f4       	brne	.+18     	; 0x2190 <vfprintf+0x308>
    217e:	06 c0       	rjmp	.+12     	; 0x218c <vfprintf+0x304>
    2180:	80 e2       	ldi	r24, 0x20	; 32
    2182:	90 e0       	ldi	r25, 0x00	; 0
    2184:	b6 01       	movw	r22, r12
    2186:	0e 94 a2 16 	call	0x2d44	; 0x2d44 <fputc>
    218a:	fa 94       	dec	r15
    218c:	ff 20       	and	r15, r15
    218e:	c1 f7       	brne	.-16     	; 0x2180 <vfprintf+0x2f8>
    2190:	00 23       	and	r16, r16
    2192:	29 f0       	breq	.+10     	; 0x219e <vfprintf+0x316>
    2194:	80 2f       	mov	r24, r16
    2196:	90 e0       	ldi	r25, 0x00	; 0
    2198:	b6 01       	movw	r22, r12
    219a:	0e 94 a2 16 	call	0x2d44	; 0x2d44 <fputc>
    219e:	43 fc       	sbrc	r4, 3
    21a0:	09 c0       	rjmp	.+18     	; 0x21b4 <vfprintf+0x32c>
    21a2:	06 c0       	rjmp	.+12     	; 0x21b0 <vfprintf+0x328>
    21a4:	80 e3       	ldi	r24, 0x30	; 48
    21a6:	90 e0       	ldi	r25, 0x00	; 0
    21a8:	b6 01       	movw	r22, r12
    21aa:	0e 94 a2 16 	call	0x2d44	; 0x2d44 <fputc>
    21ae:	fa 94       	dec	r15
    21b0:	ff 20       	and	r15, r15
    21b2:	c1 f7       	brne	.-16     	; 0x21a4 <vfprintf+0x31c>
    21b4:	e7 fe       	sbrs	r14, 7
    21b6:	46 c0       	rjmp	.+140    	; 0x2244 <vfprintf+0x3bc>
    21b8:	35 01       	movw	r6, r10
    21ba:	b7 fe       	sbrs	r11, 7
    21bc:	02 c0       	rjmp	.+4      	; 0x21c2 <vfprintf+0x33a>
    21be:	66 24       	eor	r6, r6
    21c0:	77 24       	eor	r7, r7
    21c2:	25 01       	movw	r4, r10
    21c4:	08 94       	sec
    21c6:	41 1c       	adc	r4, r1
    21c8:	51 1c       	adc	r5, r1
    21ca:	46 18       	sub	r4, r6
    21cc:	57 08       	sbc	r5, r7
    21ce:	42 0c       	add	r4, r2
    21d0:	53 1c       	adc	r5, r3
    21d2:	f5 01       	movw	r30, r10
    21d4:	e9 19       	sub	r30, r9
    21d6:	f1 09       	sbc	r31, r1
    21d8:	4f 01       	movw	r8, r30
    21da:	81 2f       	mov	r24, r17
    21dc:	90 e0       	ldi	r25, 0x00	; 0
    21de:	00 27       	eor	r16, r16
    21e0:	11 27       	eor	r17, r17
    21e2:	08 1b       	sub	r16, r24
    21e4:	19 0b       	sbc	r17, r25
    21e6:	ff ef       	ldi	r31, 0xFF	; 255
    21e8:	6f 16       	cp	r6, r31
    21ea:	ff ef       	ldi	r31, 0xFF	; 255
    21ec:	7f 06       	cpc	r7, r31
    21ee:	29 f4       	brne	.+10     	; 0x21fa <vfprintf+0x372>
    21f0:	8e e2       	ldi	r24, 0x2E	; 46
    21f2:	90 e0       	ldi	r25, 0x00	; 0
    21f4:	b6 01       	movw	r22, r12
    21f6:	0e 94 a2 16 	call	0x2d44	; 0x2d44 <fputc>
    21fa:	a6 14       	cp	r10, r6
    21fc:	b7 04       	cpc	r11, r7
    21fe:	34 f0       	brlt	.+12     	; 0x220c <vfprintf+0x384>
    2200:	86 14       	cp	r8, r6
    2202:	97 04       	cpc	r9, r7
    2204:	1c f4       	brge	.+6      	; 0x220c <vfprintf+0x384>
    2206:	f2 01       	movw	r30, r4
    2208:	80 81       	ld	r24, Z
    220a:	01 c0       	rjmp	.+2      	; 0x220e <vfprintf+0x386>
    220c:	80 e3       	ldi	r24, 0x30	; 48
    220e:	08 94       	sec
    2210:	61 08       	sbc	r6, r1
    2212:	71 08       	sbc	r7, r1
    2214:	08 94       	sec
    2216:	41 1c       	adc	r4, r1
    2218:	51 1c       	adc	r5, r1
    221a:	60 16       	cp	r6, r16
    221c:	71 06       	cpc	r7, r17
    221e:	2c f0       	brlt	.+10     	; 0x222a <vfprintf+0x3a2>
    2220:	90 e0       	ldi	r25, 0x00	; 0
    2222:	b6 01       	movw	r22, r12
    2224:	0e 94 a2 16 	call	0x2d44	; 0x2d44 <fputc>
    2228:	de cf       	rjmp	.-68     	; 0x21e6 <vfprintf+0x35e>
    222a:	6a 14       	cp	r6, r10
    222c:	7b 04       	cpc	r7, r11
    222e:	41 f4       	brne	.+16     	; 0x2240 <vfprintf+0x3b8>
    2230:	9a 81       	ldd	r25, Y+2	; 0x02
    2232:	96 33       	cpi	r25, 0x36	; 54
    2234:	20 f4       	brcc	.+8      	; 0x223e <vfprintf+0x3b6>
    2236:	95 33       	cpi	r25, 0x35	; 53
    2238:	19 f4       	brne	.+6      	; 0x2240 <vfprintf+0x3b8>
    223a:	f8 89       	ldd	r31, Y+16	; 0x10
    223c:	f4 ff       	sbrs	r31, 4
    223e:	81 e3       	ldi	r24, 0x31	; 49
    2240:	90 e0       	ldi	r25, 0x00	; 0
    2242:	49 c0       	rjmp	.+146    	; 0x22d6 <vfprintf+0x44e>
    2244:	8a 81       	ldd	r24, Y+2	; 0x02
    2246:	81 33       	cpi	r24, 0x31	; 49
    2248:	11 f0       	breq	.+4      	; 0x224e <vfprintf+0x3c6>
    224a:	2f ee       	ldi	r18, 0xEF	; 239
    224c:	62 22       	and	r6, r18
    224e:	90 e0       	ldi	r25, 0x00	; 0
    2250:	b6 01       	movw	r22, r12
    2252:	0e 94 a2 16 	call	0x2d44	; 0x2d44 <fputc>
    2256:	11 23       	and	r17, r17
    2258:	89 f0       	breq	.+34     	; 0x227c <vfprintf+0x3f4>
    225a:	8e e2       	ldi	r24, 0x2E	; 46
    225c:	90 e0       	ldi	r25, 0x00	; 0
    225e:	b6 01       	movw	r22, r12
    2260:	0e 94 a2 16 	call	0x2d44	; 0x2d44 <fputc>
    2264:	02 e0       	ldi	r16, 0x02	; 2
    2266:	f1 01       	movw	r30, r2
    2268:	e0 0f       	add	r30, r16
    226a:	f1 1d       	adc	r31, r1
    226c:	0f 5f       	subi	r16, 0xFF	; 255
    226e:	80 81       	ld	r24, Z
    2270:	90 e0       	ldi	r25, 0x00	; 0
    2272:	b6 01       	movw	r22, r12
    2274:	0e 94 a2 16 	call	0x2d44	; 0x2d44 <fputc>
    2278:	11 50       	subi	r17, 0x01	; 1
    227a:	a9 f7       	brne	.-22     	; 0x2266 <vfprintf+0x3de>
    227c:	44 fe       	sbrs	r4, 4
    227e:	03 c0       	rjmp	.+6      	; 0x2286 <vfprintf+0x3fe>
    2280:	85 e4       	ldi	r24, 0x45	; 69
    2282:	90 e0       	ldi	r25, 0x00	; 0
    2284:	02 c0       	rjmp	.+4      	; 0x228a <vfprintf+0x402>
    2286:	85 e6       	ldi	r24, 0x65	; 101
    2288:	90 e0       	ldi	r25, 0x00	; 0
    228a:	b6 01       	movw	r22, r12
    228c:	0e 94 a2 16 	call	0x2d44	; 0x2d44 <fputc>
    2290:	b7 fc       	sbrc	r11, 7
    2292:	05 c0       	rjmp	.+10     	; 0x229e <vfprintf+0x416>
    2294:	a1 14       	cp	r10, r1
    2296:	b1 04       	cpc	r11, r1
    2298:	41 f4       	brne	.+16     	; 0x22aa <vfprintf+0x422>
    229a:	64 fe       	sbrs	r6, 4
    229c:	06 c0       	rjmp	.+12     	; 0x22aa <vfprintf+0x422>
    229e:	b0 94       	com	r11
    22a0:	a1 94       	neg	r10
    22a2:	b1 08       	sbc	r11, r1
    22a4:	b3 94       	inc	r11
    22a6:	8d e2       	ldi	r24, 0x2D	; 45
    22a8:	01 c0       	rjmp	.+2      	; 0x22ac <vfprintf+0x424>
    22aa:	8b e2       	ldi	r24, 0x2B	; 43
    22ac:	90 e0       	ldi	r25, 0x00	; 0
    22ae:	b6 01       	movw	r22, r12
    22b0:	0e 94 a2 16 	call	0x2d44	; 0x2d44 <fputc>
    22b4:	80 e3       	ldi	r24, 0x30	; 48
    22b6:	05 c0       	rjmp	.+10     	; 0x22c2 <vfprintf+0x43a>
    22b8:	8f 5f       	subi	r24, 0xFF	; 255
    22ba:	e6 ef       	ldi	r30, 0xF6	; 246
    22bc:	ff ef       	ldi	r31, 0xFF	; 255
    22be:	ae 0e       	add	r10, r30
    22c0:	bf 1e       	adc	r11, r31
    22c2:	fa e0       	ldi	r31, 0x0A	; 10
    22c4:	af 16       	cp	r10, r31
    22c6:	b1 04       	cpc	r11, r1
    22c8:	bc f7       	brge	.-18     	; 0x22b8 <vfprintf+0x430>
    22ca:	90 e0       	ldi	r25, 0x00	; 0
    22cc:	b6 01       	movw	r22, r12
    22ce:	0e 94 a2 16 	call	0x2d44	; 0x2d44 <fputc>
    22d2:	c5 01       	movw	r24, r10
    22d4:	c0 96       	adiw	r24, 0x30	; 48
    22d6:	b6 01       	movw	r22, r12
    22d8:	0e 94 a2 16 	call	0x2d44	; 0x2d44 <fputc>
    22dc:	4d c1       	rjmp	.+666    	; 0x2578 <vfprintf+0x6f0>
    22de:	83 36       	cpi	r24, 0x63	; 99
    22e0:	31 f0       	breq	.+12     	; 0x22ee <vfprintf+0x466>
    22e2:	83 37       	cpi	r24, 0x73	; 115
    22e4:	89 f0       	breq	.+34     	; 0x2308 <vfprintf+0x480>
    22e6:	83 35       	cpi	r24, 0x53	; 83
    22e8:	09 f0       	breq	.+2      	; 0x22ec <vfprintf+0x464>
    22ea:	59 c0       	rjmp	.+178    	; 0x239e <vfprintf+0x516>
    22ec:	22 c0       	rjmp	.+68     	; 0x2332 <vfprintf+0x4aa>
    22ee:	9a 01       	movw	r18, r20
    22f0:	2e 5f       	subi	r18, 0xFE	; 254
    22f2:	3f 4f       	sbci	r19, 0xFF	; 255
    22f4:	3d 87       	std	Y+13, r19	; 0x0d
    22f6:	2c 87       	std	Y+12, r18	; 0x0c
    22f8:	fa 01       	movw	r30, r20
    22fa:	80 81       	ld	r24, Z
    22fc:	89 83       	std	Y+1, r24	; 0x01
    22fe:	31 01       	movw	r6, r2
    2300:	81 e0       	ldi	r24, 0x01	; 1
    2302:	a8 2e       	mov	r10, r24
    2304:	b1 2c       	mov	r11, r1
    2306:	13 c0       	rjmp	.+38     	; 0x232e <vfprintf+0x4a6>
    2308:	9a 01       	movw	r18, r20
    230a:	2e 5f       	subi	r18, 0xFE	; 254
    230c:	3f 4f       	sbci	r19, 0xFF	; 255
    230e:	3d 87       	std	Y+13, r19	; 0x0d
    2310:	2c 87       	std	Y+12, r18	; 0x0c
    2312:	fa 01       	movw	r30, r20
    2314:	60 80       	ld	r6, Z
    2316:	71 80       	ldd	r7, Z+1	; 0x01
    2318:	06 ff       	sbrs	r16, 6
    231a:	03 c0       	rjmp	.+6      	; 0x2322 <vfprintf+0x49a>
    231c:	61 2f       	mov	r22, r17
    231e:	70 e0       	ldi	r23, 0x00	; 0
    2320:	02 c0       	rjmp	.+4      	; 0x2326 <vfprintf+0x49e>
    2322:	6f ef       	ldi	r22, 0xFF	; 255
    2324:	7f ef       	ldi	r23, 0xFF	; 255
    2326:	c3 01       	movw	r24, r6
    2328:	0e 94 97 16 	call	0x2d2e	; 0x2d2e <strnlen>
    232c:	5c 01       	movw	r10, r24
    232e:	0f 77       	andi	r16, 0x7F	; 127
    2330:	14 c0       	rjmp	.+40     	; 0x235a <vfprintf+0x4d2>
    2332:	9a 01       	movw	r18, r20
    2334:	2e 5f       	subi	r18, 0xFE	; 254
    2336:	3f 4f       	sbci	r19, 0xFF	; 255
    2338:	3d 87       	std	Y+13, r19	; 0x0d
    233a:	2c 87       	std	Y+12, r18	; 0x0c
    233c:	fa 01       	movw	r30, r20
    233e:	60 80       	ld	r6, Z
    2340:	71 80       	ldd	r7, Z+1	; 0x01
    2342:	06 ff       	sbrs	r16, 6
    2344:	03 c0       	rjmp	.+6      	; 0x234c <vfprintf+0x4c4>
    2346:	61 2f       	mov	r22, r17
    2348:	70 e0       	ldi	r23, 0x00	; 0
    234a:	02 c0       	rjmp	.+4      	; 0x2350 <vfprintf+0x4c8>
    234c:	6f ef       	ldi	r22, 0xFF	; 255
    234e:	7f ef       	ldi	r23, 0xFF	; 255
    2350:	c3 01       	movw	r24, r6
    2352:	0e 94 8c 16 	call	0x2d18	; 0x2d18 <strnlen_P>
    2356:	5c 01       	movw	r10, r24
    2358:	00 68       	ori	r16, 0x80	; 128
    235a:	03 fd       	sbrc	r16, 3
    235c:	1c c0       	rjmp	.+56     	; 0x2396 <vfprintf+0x50e>
    235e:	06 c0       	rjmp	.+12     	; 0x236c <vfprintf+0x4e4>
    2360:	80 e2       	ldi	r24, 0x20	; 32
    2362:	90 e0       	ldi	r25, 0x00	; 0
    2364:	b6 01       	movw	r22, r12
    2366:	0e 94 a2 16 	call	0x2d44	; 0x2d44 <fputc>
    236a:	fa 94       	dec	r15
    236c:	8f 2d       	mov	r24, r15
    236e:	90 e0       	ldi	r25, 0x00	; 0
    2370:	a8 16       	cp	r10, r24
    2372:	b9 06       	cpc	r11, r25
    2374:	a8 f3       	brcs	.-22     	; 0x2360 <vfprintf+0x4d8>
    2376:	0f c0       	rjmp	.+30     	; 0x2396 <vfprintf+0x50e>
    2378:	f3 01       	movw	r30, r6
    237a:	07 fd       	sbrc	r16, 7
    237c:	85 91       	lpm	r24, Z+
    237e:	07 ff       	sbrs	r16, 7
    2380:	81 91       	ld	r24, Z+
    2382:	3f 01       	movw	r6, r30
    2384:	90 e0       	ldi	r25, 0x00	; 0
    2386:	b6 01       	movw	r22, r12
    2388:	0e 94 a2 16 	call	0x2d44	; 0x2d44 <fputc>
    238c:	f1 10       	cpse	r15, r1
    238e:	fa 94       	dec	r15
    2390:	08 94       	sec
    2392:	a1 08       	sbc	r10, r1
    2394:	b1 08       	sbc	r11, r1
    2396:	a1 14       	cp	r10, r1
    2398:	b1 04       	cpc	r11, r1
    239a:	71 f7       	brne	.-36     	; 0x2378 <vfprintf+0x4f0>
    239c:	ed c0       	rjmp	.+474    	; 0x2578 <vfprintf+0x6f0>
    239e:	84 36       	cpi	r24, 0x64	; 100
    23a0:	11 f0       	breq	.+4      	; 0x23a6 <vfprintf+0x51e>
    23a2:	89 36       	cpi	r24, 0x69	; 105
    23a4:	61 f5       	brne	.+88     	; 0x23fe <vfprintf+0x576>
    23a6:	07 ff       	sbrs	r16, 7
    23a8:	0b c0       	rjmp	.+22     	; 0x23c0 <vfprintf+0x538>
    23aa:	9a 01       	movw	r18, r20
    23ac:	2c 5f       	subi	r18, 0xFC	; 252
    23ae:	3f 4f       	sbci	r19, 0xFF	; 255
    23b0:	3d 87       	std	Y+13, r19	; 0x0d
    23b2:	2c 87       	std	Y+12, r18	; 0x0c
    23b4:	fa 01       	movw	r30, r20
    23b6:	60 81       	ld	r22, Z
    23b8:	71 81       	ldd	r23, Z+1	; 0x01
    23ba:	82 81       	ldd	r24, Z+2	; 0x02
    23bc:	93 81       	ldd	r25, Z+3	; 0x03
    23be:	0c c0       	rjmp	.+24     	; 0x23d8 <vfprintf+0x550>
    23c0:	9a 01       	movw	r18, r20
    23c2:	2e 5f       	subi	r18, 0xFE	; 254
    23c4:	3f 4f       	sbci	r19, 0xFF	; 255
    23c6:	3d 87       	std	Y+13, r19	; 0x0d
    23c8:	2c 87       	std	Y+12, r18	; 0x0c
    23ca:	fa 01       	movw	r30, r20
    23cc:	60 81       	ld	r22, Z
    23ce:	71 81       	ldd	r23, Z+1	; 0x01
    23d0:	88 27       	eor	r24, r24
    23d2:	77 fd       	sbrc	r23, 7
    23d4:	80 95       	com	r24
    23d6:	98 2f       	mov	r25, r24
    23d8:	0f 76       	andi	r16, 0x6F	; 111
    23da:	97 ff       	sbrs	r25, 7
    23dc:	08 c0       	rjmp	.+16     	; 0x23ee <vfprintf+0x566>
    23de:	90 95       	com	r25
    23e0:	80 95       	com	r24
    23e2:	70 95       	com	r23
    23e4:	61 95       	neg	r22
    23e6:	7f 4f       	sbci	r23, 0xFF	; 255
    23e8:	8f 4f       	sbci	r24, 0xFF	; 255
    23ea:	9f 4f       	sbci	r25, 0xFF	; 255
    23ec:	00 68       	ori	r16, 0x80	; 128
    23ee:	a1 01       	movw	r20, r2
    23f0:	2a e0       	ldi	r18, 0x0A	; 10
    23f2:	30 e0       	ldi	r19, 0x00	; 0
    23f4:	0e 94 1f 17 	call	0x2e3e	; 0x2e3e <__ultoa_invert>
    23f8:	98 2e       	mov	r9, r24
    23fa:	92 18       	sub	r9, r2
    23fc:	41 c0       	rjmp	.+130    	; 0x2480 <vfprintf+0x5f8>
    23fe:	85 37       	cpi	r24, 0x75	; 117
    2400:	21 f4       	brne	.+8      	; 0x240a <vfprintf+0x582>
    2402:	0f 7e       	andi	r16, 0xEF	; 239
    2404:	2a e0       	ldi	r18, 0x0A	; 10
    2406:	30 e0       	ldi	r19, 0x00	; 0
    2408:	20 c0       	rjmp	.+64     	; 0x244a <vfprintf+0x5c2>
    240a:	09 7f       	andi	r16, 0xF9	; 249
    240c:	8f 36       	cpi	r24, 0x6F	; 111
    240e:	a9 f0       	breq	.+42     	; 0x243a <vfprintf+0x5b2>
    2410:	80 37       	cpi	r24, 0x70	; 112
    2412:	20 f4       	brcc	.+8      	; 0x241c <vfprintf+0x594>
    2414:	88 35       	cpi	r24, 0x58	; 88
    2416:	09 f0       	breq	.+2      	; 0x241a <vfprintf+0x592>
    2418:	b2 c0       	rjmp	.+356    	; 0x257e <vfprintf+0x6f6>
    241a:	0b c0       	rjmp	.+22     	; 0x2432 <vfprintf+0x5aa>
    241c:	80 37       	cpi	r24, 0x70	; 112
    241e:	21 f0       	breq	.+8      	; 0x2428 <vfprintf+0x5a0>
    2420:	88 37       	cpi	r24, 0x78	; 120
    2422:	09 f0       	breq	.+2      	; 0x2426 <vfprintf+0x59e>
    2424:	ac c0       	rjmp	.+344    	; 0x257e <vfprintf+0x6f6>
    2426:	01 c0       	rjmp	.+2      	; 0x242a <vfprintf+0x5a2>
    2428:	00 61       	ori	r16, 0x10	; 16
    242a:	04 ff       	sbrs	r16, 4
    242c:	09 c0       	rjmp	.+18     	; 0x2440 <vfprintf+0x5b8>
    242e:	04 60       	ori	r16, 0x04	; 4
    2430:	07 c0       	rjmp	.+14     	; 0x2440 <vfprintf+0x5b8>
    2432:	04 ff       	sbrs	r16, 4
    2434:	08 c0       	rjmp	.+16     	; 0x2446 <vfprintf+0x5be>
    2436:	06 60       	ori	r16, 0x06	; 6
    2438:	06 c0       	rjmp	.+12     	; 0x2446 <vfprintf+0x5be>
    243a:	28 e0       	ldi	r18, 0x08	; 8
    243c:	30 e0       	ldi	r19, 0x00	; 0
    243e:	05 c0       	rjmp	.+10     	; 0x244a <vfprintf+0x5c2>
    2440:	20 e1       	ldi	r18, 0x10	; 16
    2442:	30 e0       	ldi	r19, 0x00	; 0
    2444:	02 c0       	rjmp	.+4      	; 0x244a <vfprintf+0x5c2>
    2446:	20 e1       	ldi	r18, 0x10	; 16
    2448:	32 e0       	ldi	r19, 0x02	; 2
    244a:	07 ff       	sbrs	r16, 7
    244c:	0a c0       	rjmp	.+20     	; 0x2462 <vfprintf+0x5da>
    244e:	ca 01       	movw	r24, r20
    2450:	04 96       	adiw	r24, 0x04	; 4
    2452:	9d 87       	std	Y+13, r25	; 0x0d
    2454:	8c 87       	std	Y+12, r24	; 0x0c
    2456:	fa 01       	movw	r30, r20
    2458:	60 81       	ld	r22, Z
    245a:	71 81       	ldd	r23, Z+1	; 0x01
    245c:	82 81       	ldd	r24, Z+2	; 0x02
    245e:	93 81       	ldd	r25, Z+3	; 0x03
    2460:	09 c0       	rjmp	.+18     	; 0x2474 <vfprintf+0x5ec>
    2462:	ca 01       	movw	r24, r20
    2464:	02 96       	adiw	r24, 0x02	; 2
    2466:	9d 87       	std	Y+13, r25	; 0x0d
    2468:	8c 87       	std	Y+12, r24	; 0x0c
    246a:	fa 01       	movw	r30, r20
    246c:	60 81       	ld	r22, Z
    246e:	71 81       	ldd	r23, Z+1	; 0x01
    2470:	80 e0       	ldi	r24, 0x00	; 0
    2472:	90 e0       	ldi	r25, 0x00	; 0
    2474:	a1 01       	movw	r20, r2
    2476:	0e 94 1f 17 	call	0x2e3e	; 0x2e3e <__ultoa_invert>
    247a:	98 2e       	mov	r9, r24
    247c:	92 18       	sub	r9, r2
    247e:	0f 77       	andi	r16, 0x7F	; 127
    2480:	06 ff       	sbrs	r16, 6
    2482:	09 c0       	rjmp	.+18     	; 0x2496 <vfprintf+0x60e>
    2484:	0e 7f       	andi	r16, 0xFE	; 254
    2486:	91 16       	cp	r9, r17
    2488:	30 f4       	brcc	.+12     	; 0x2496 <vfprintf+0x60e>
    248a:	04 ff       	sbrs	r16, 4
    248c:	06 c0       	rjmp	.+12     	; 0x249a <vfprintf+0x612>
    248e:	02 fd       	sbrc	r16, 2
    2490:	04 c0       	rjmp	.+8      	; 0x249a <vfprintf+0x612>
    2492:	0f 7e       	andi	r16, 0xEF	; 239
    2494:	02 c0       	rjmp	.+4      	; 0x249a <vfprintf+0x612>
    2496:	e9 2c       	mov	r14, r9
    2498:	01 c0       	rjmp	.+2      	; 0x249c <vfprintf+0x614>
    249a:	e1 2e       	mov	r14, r17
    249c:	80 2f       	mov	r24, r16
    249e:	90 e0       	ldi	r25, 0x00	; 0
    24a0:	04 ff       	sbrs	r16, 4
    24a2:	0c c0       	rjmp	.+24     	; 0x24bc <vfprintf+0x634>
    24a4:	fe 01       	movw	r30, r28
    24a6:	e9 0d       	add	r30, r9
    24a8:	f1 1d       	adc	r31, r1
    24aa:	20 81       	ld	r18, Z
    24ac:	20 33       	cpi	r18, 0x30	; 48
    24ae:	11 f4       	brne	.+4      	; 0x24b4 <vfprintf+0x62c>
    24b0:	09 7e       	andi	r16, 0xE9	; 233
    24b2:	09 c0       	rjmp	.+18     	; 0x24c6 <vfprintf+0x63e>
    24b4:	e3 94       	inc	r14
    24b6:	02 ff       	sbrs	r16, 2
    24b8:	06 c0       	rjmp	.+12     	; 0x24c6 <vfprintf+0x63e>
    24ba:	04 c0       	rjmp	.+8      	; 0x24c4 <vfprintf+0x63c>
    24bc:	86 78       	andi	r24, 0x86	; 134
    24be:	90 70       	andi	r25, 0x00	; 0
    24c0:	00 97       	sbiw	r24, 0x00	; 0
    24c2:	09 f0       	breq	.+2      	; 0x24c6 <vfprintf+0x63e>
    24c4:	e3 94       	inc	r14
    24c6:	a0 2e       	mov	r10, r16
    24c8:	bb 24       	eor	r11, r11
    24ca:	03 fd       	sbrc	r16, 3
    24cc:	14 c0       	rjmp	.+40     	; 0x24f6 <vfprintf+0x66e>
    24ce:	00 ff       	sbrs	r16, 0
    24d0:	0f c0       	rjmp	.+30     	; 0x24f0 <vfprintf+0x668>
    24d2:	ef 14       	cp	r14, r15
    24d4:	28 f4       	brcc	.+10     	; 0x24e0 <vfprintf+0x658>
    24d6:	19 2d       	mov	r17, r9
    24d8:	1f 0d       	add	r17, r15
    24da:	1e 19       	sub	r17, r14
    24dc:	ef 2c       	mov	r14, r15
    24de:	08 c0       	rjmp	.+16     	; 0x24f0 <vfprintf+0x668>
    24e0:	19 2d       	mov	r17, r9
    24e2:	06 c0       	rjmp	.+12     	; 0x24f0 <vfprintf+0x668>
    24e4:	80 e2       	ldi	r24, 0x20	; 32
    24e6:	90 e0       	ldi	r25, 0x00	; 0
    24e8:	b6 01       	movw	r22, r12
    24ea:	0e 94 a2 16 	call	0x2d44	; 0x2d44 <fputc>
    24ee:	e3 94       	inc	r14
    24f0:	ef 14       	cp	r14, r15
    24f2:	c0 f3       	brcs	.-16     	; 0x24e4 <vfprintf+0x65c>
    24f4:	04 c0       	rjmp	.+8      	; 0x24fe <vfprintf+0x676>
    24f6:	ef 14       	cp	r14, r15
    24f8:	10 f4       	brcc	.+4      	; 0x24fe <vfprintf+0x676>
    24fa:	fe 18       	sub	r15, r14
    24fc:	01 c0       	rjmp	.+2      	; 0x2500 <vfprintf+0x678>
    24fe:	ff 24       	eor	r15, r15
    2500:	a4 fe       	sbrs	r10, 4
    2502:	0f c0       	rjmp	.+30     	; 0x2522 <vfprintf+0x69a>
    2504:	80 e3       	ldi	r24, 0x30	; 48
    2506:	90 e0       	ldi	r25, 0x00	; 0
    2508:	b6 01       	movw	r22, r12
    250a:	0e 94 a2 16 	call	0x2d44	; 0x2d44 <fputc>
    250e:	a2 fe       	sbrs	r10, 2
    2510:	1f c0       	rjmp	.+62     	; 0x2550 <vfprintf+0x6c8>
    2512:	a1 fe       	sbrs	r10, 1
    2514:	03 c0       	rjmp	.+6      	; 0x251c <vfprintf+0x694>
    2516:	88 e5       	ldi	r24, 0x58	; 88
    2518:	90 e0       	ldi	r25, 0x00	; 0
    251a:	10 c0       	rjmp	.+32     	; 0x253c <vfprintf+0x6b4>
    251c:	88 e7       	ldi	r24, 0x78	; 120
    251e:	90 e0       	ldi	r25, 0x00	; 0
    2520:	0d c0       	rjmp	.+26     	; 0x253c <vfprintf+0x6b4>
    2522:	c5 01       	movw	r24, r10
    2524:	86 78       	andi	r24, 0x86	; 134
    2526:	90 70       	andi	r25, 0x00	; 0
    2528:	00 97       	sbiw	r24, 0x00	; 0
    252a:	91 f0       	breq	.+36     	; 0x2550 <vfprintf+0x6c8>
    252c:	a1 fc       	sbrc	r10, 1
    252e:	02 c0       	rjmp	.+4      	; 0x2534 <vfprintf+0x6ac>
    2530:	80 e2       	ldi	r24, 0x20	; 32
    2532:	01 c0       	rjmp	.+2      	; 0x2536 <vfprintf+0x6ae>
    2534:	8b e2       	ldi	r24, 0x2B	; 43
    2536:	07 fd       	sbrc	r16, 7
    2538:	8d e2       	ldi	r24, 0x2D	; 45
    253a:	90 e0       	ldi	r25, 0x00	; 0
    253c:	b6 01       	movw	r22, r12
    253e:	0e 94 a2 16 	call	0x2d44	; 0x2d44 <fputc>
    2542:	06 c0       	rjmp	.+12     	; 0x2550 <vfprintf+0x6c8>
    2544:	80 e3       	ldi	r24, 0x30	; 48
    2546:	90 e0       	ldi	r25, 0x00	; 0
    2548:	b6 01       	movw	r22, r12
    254a:	0e 94 a2 16 	call	0x2d44	; 0x2d44 <fputc>
    254e:	11 50       	subi	r17, 0x01	; 1
    2550:	91 16       	cp	r9, r17
    2552:	c0 f3       	brcs	.-16     	; 0x2544 <vfprintf+0x6bc>
    2554:	9a 94       	dec	r9
    2556:	f1 01       	movw	r30, r2
    2558:	e9 0d       	add	r30, r9
    255a:	f1 1d       	adc	r31, r1
    255c:	80 81       	ld	r24, Z
    255e:	90 e0       	ldi	r25, 0x00	; 0
    2560:	b6 01       	movw	r22, r12
    2562:	0e 94 a2 16 	call	0x2d44	; 0x2d44 <fputc>
    2566:	99 20       	and	r9, r9
    2568:	a9 f7       	brne	.-22     	; 0x2554 <vfprintf+0x6cc>
    256a:	06 c0       	rjmp	.+12     	; 0x2578 <vfprintf+0x6f0>
    256c:	80 e2       	ldi	r24, 0x20	; 32
    256e:	90 e0       	ldi	r25, 0x00	; 0
    2570:	b6 01       	movw	r22, r12
    2572:	0e 94 a2 16 	call	0x2d44	; 0x2d44 <fputc>
    2576:	fa 94       	dec	r15
    2578:	ff 20       	and	r15, r15
    257a:	c1 f7       	brne	.-16     	; 0x256c <vfprintf+0x6e4>
    257c:	95 cc       	rjmp	.-1750   	; 0x1ea8 <vfprintf+0x20>
    257e:	f6 01       	movw	r30, r12
    2580:	26 81       	ldd	r18, Z+6	; 0x06
    2582:	37 81       	ldd	r19, Z+7	; 0x07
    2584:	02 c0       	rjmp	.+4      	; 0x258a <vfprintf+0x702>
    2586:	2f ef       	ldi	r18, 0xFF	; 255
    2588:	3f ef       	ldi	r19, 0xFF	; 255
    258a:	c9 01       	movw	r24, r18
    258c:	63 96       	adiw	r28, 0x13	; 19
    258e:	e2 e1       	ldi	r30, 0x12	; 18
    2590:	0c 94 85 15 	jmp	0x2b0a	; 0x2b0a <__epilogue_restores__>
    2594:	32 d1       	rcall	.+612    	; 0x27fa <__fp_pscA>
    2596:	58 f0       	brcs	.+22     	; 0x25ae <vfprintf+0x726>
    2598:	80 e8       	ldi	r24, 0x80	; 128
    259a:	91 e0       	ldi	r25, 0x01	; 1
    259c:	09 f4       	brne	.+2      	; 0x25a0 <vfprintf+0x718>
    259e:	9e ef       	ldi	r25, 0xFE	; 254
    25a0:	33 d1       	rcall	.+614    	; 0x2808 <__fp_pscB>
    25a2:	28 f0       	brcs	.+10     	; 0x25ae <vfprintf+0x726>
    25a4:	40 e8       	ldi	r20, 0x80	; 128
    25a6:	51 e0       	ldi	r21, 0x01	; 1
    25a8:	59 f4       	brne	.+22     	; 0x25c0 <atan2+0xe>
    25aa:	5e ef       	ldi	r21, 0xFE	; 254
    25ac:	09 c0       	rjmp	.+18     	; 0x25c0 <atan2+0xe>
    25ae:	fd c0       	rjmp	.+506    	; 0x27aa <__fp_nan>
    25b0:	65 c1       	rjmp	.+714    	; 0x287c <__fp_zero>

000025b2 <atan2>:
    25b2:	e9 2f       	mov	r30, r25
    25b4:	e0 78       	andi	r30, 0x80	; 128
    25b6:	40 d1       	rcall	.+640    	; 0x2838 <__fp_split3>
    25b8:	68 f3       	brcs	.-38     	; 0x2594 <vfprintf+0x70c>
    25ba:	09 2e       	mov	r0, r25
    25bc:	05 2a       	or	r0, r21
    25be:	c1 f3       	breq	.-16     	; 0x25b0 <vfprintf+0x728>
    25c0:	26 17       	cp	r18, r22
    25c2:	37 07       	cpc	r19, r23
    25c4:	48 07       	cpc	r20, r24
    25c6:	59 07       	cpc	r21, r25
    25c8:	38 f0       	brcs	.+14     	; 0x25d8 <atan2+0x26>
    25ca:	0e 2e       	mov	r0, r30
    25cc:	07 f8       	bld	r0, 7
    25ce:	e0 25       	eor	r30, r0
    25d0:	69 f0       	breq	.+26     	; 0x25ec <atan2+0x3a>
    25d2:	e0 25       	eor	r30, r0
    25d4:	e0 64       	ori	r30, 0x40	; 64
    25d6:	0a c0       	rjmp	.+20     	; 0x25ec <atan2+0x3a>
    25d8:	ef 63       	ori	r30, 0x3F	; 63
    25da:	07 f8       	bld	r0, 7
    25dc:	00 94       	com	r0
    25de:	07 fa       	bst	r0, 7
    25e0:	db 01       	movw	r26, r22
    25e2:	b9 01       	movw	r22, r18
    25e4:	9d 01       	movw	r18, r26
    25e6:	dc 01       	movw	r26, r24
    25e8:	ca 01       	movw	r24, r20
    25ea:	ad 01       	movw	r20, r26
    25ec:	ef 93       	push	r30
    25ee:	41 d0       	rcall	.+130    	; 0x2672 <__divsf3_pse>
    25f0:	12 d1       	rcall	.+548    	; 0x2816 <__fp_round>
    25f2:	0a d0       	rcall	.+20     	; 0x2608 <atan>
    25f4:	5f 91       	pop	r21
    25f6:	55 23       	and	r21, r21
    25f8:	31 f0       	breq	.+12     	; 0x2606 <atan2+0x54>
    25fa:	2b ed       	ldi	r18, 0xDB	; 219
    25fc:	3f e0       	ldi	r19, 0x0F	; 15
    25fe:	49 e4       	ldi	r20, 0x49	; 73
    2600:	50 fd       	sbrc	r21, 0
    2602:	49 ec       	ldi	r20, 0xC9	; 201
    2604:	b0 c1       	rjmp	.+864    	; 0x2966 <__addsf3>
    2606:	08 95       	ret

00002608 <atan>:
    2608:	df 93       	push	r29
    260a:	dd 27       	eor	r29, r29
    260c:	b9 2f       	mov	r27, r25
    260e:	bf 77       	andi	r27, 0x7F	; 127
    2610:	40 e8       	ldi	r20, 0x80	; 128
    2612:	5f e3       	ldi	r21, 0x3F	; 63
    2614:	16 16       	cp	r1, r22
    2616:	17 06       	cpc	r1, r23
    2618:	48 07       	cpc	r20, r24
    261a:	5b 07       	cpc	r21, r27
    261c:	10 f4       	brcc	.+4      	; 0x2622 <atan+0x1a>
    261e:	d9 2f       	mov	r29, r25
    2620:	34 d1       	rcall	.+616    	; 0x288a <inverse>
    2622:	9f 93       	push	r25
    2624:	8f 93       	push	r24
    2626:	7f 93       	push	r23
    2628:	6f 93       	push	r22
    262a:	99 d1       	rcall	.+818    	; 0x295e <square>
    262c:	ec e8       	ldi	r30, 0x8C	; 140
    262e:	f0 e0       	ldi	r31, 0x00	; 0
    2630:	bf d0       	rcall	.+382    	; 0x27b0 <__fp_powser>
    2632:	f1 d0       	rcall	.+482    	; 0x2816 <__fp_round>
    2634:	2f 91       	pop	r18
    2636:	3f 91       	pop	r19
    2638:	4f 91       	pop	r20
    263a:	5f 91       	pop	r21
    263c:	39 d1       	rcall	.+626    	; 0x28b0 <__mulsf3x>
    263e:	dd 23       	and	r29, r29
    2640:	49 f0       	breq	.+18     	; 0x2654 <atan+0x4c>
    2642:	90 58       	subi	r25, 0x80	; 128
    2644:	a2 ea       	ldi	r26, 0xA2	; 162
    2646:	2a ed       	ldi	r18, 0xDA	; 218
    2648:	3f e0       	ldi	r19, 0x0F	; 15
    264a:	49 ec       	ldi	r20, 0xC9	; 201
    264c:	5f e3       	ldi	r21, 0x3F	; 63
    264e:	d0 78       	andi	r29, 0x80	; 128
    2650:	5d 27       	eor	r21, r29
    2652:	9a d1       	rcall	.+820    	; 0x2988 <__addsf3x>
    2654:	df 91       	pop	r29
    2656:	df c0       	rjmp	.+446    	; 0x2816 <__fp_round>
    2658:	d7 d0       	rcall	.+430    	; 0x2808 <__fp_pscB>
    265a:	40 f0       	brcs	.+16     	; 0x266c <atan+0x64>
    265c:	ce d0       	rcall	.+412    	; 0x27fa <__fp_pscA>
    265e:	30 f0       	brcs	.+12     	; 0x266c <atan+0x64>
    2660:	21 f4       	brne	.+8      	; 0x266a <atan+0x62>
    2662:	5f 3f       	cpi	r21, 0xFF	; 255
    2664:	19 f0       	breq	.+6      	; 0x266c <atan+0x64>
    2666:	9b c0       	rjmp	.+310    	; 0x279e <__fp_inf>
    2668:	51 11       	cpse	r21, r1
    266a:	09 c1       	rjmp	.+530    	; 0x287e <__fp_szero>
    266c:	9e c0       	rjmp	.+316    	; 0x27aa <__fp_nan>

0000266e <__divsf3x>:
    266e:	e4 d0       	rcall	.+456    	; 0x2838 <__fp_split3>
    2670:	98 f3       	brcs	.-26     	; 0x2658 <atan+0x50>

00002672 <__divsf3_pse>:
    2672:	99 23       	and	r25, r25
    2674:	c9 f3       	breq	.-14     	; 0x2668 <atan+0x60>
    2676:	55 23       	and	r21, r21
    2678:	b1 f3       	breq	.-20     	; 0x2666 <atan+0x5e>
    267a:	95 1b       	sub	r25, r21
    267c:	55 0b       	sbc	r21, r21
    267e:	bb 27       	eor	r27, r27
    2680:	aa 27       	eor	r26, r26
    2682:	62 17       	cp	r22, r18
    2684:	73 07       	cpc	r23, r19
    2686:	84 07       	cpc	r24, r20
    2688:	38 f0       	brcs	.+14     	; 0x2698 <__divsf3_pse+0x26>
    268a:	9f 5f       	subi	r25, 0xFF	; 255
    268c:	5f 4f       	sbci	r21, 0xFF	; 255
    268e:	22 0f       	add	r18, r18
    2690:	33 1f       	adc	r19, r19
    2692:	44 1f       	adc	r20, r20
    2694:	aa 1f       	adc	r26, r26
    2696:	a9 f3       	breq	.-22     	; 0x2682 <__divsf3_pse+0x10>
    2698:	33 d0       	rcall	.+102    	; 0x2700 <__divsf3_pse+0x8e>
    269a:	0e 2e       	mov	r0, r30
    269c:	3a f0       	brmi	.+14     	; 0x26ac <__divsf3_pse+0x3a>
    269e:	e0 e8       	ldi	r30, 0x80	; 128
    26a0:	30 d0       	rcall	.+96     	; 0x2702 <__divsf3_pse+0x90>
    26a2:	91 50       	subi	r25, 0x01	; 1
    26a4:	50 40       	sbci	r21, 0x00	; 0
    26a6:	e6 95       	lsr	r30
    26a8:	00 1c       	adc	r0, r0
    26aa:	ca f7       	brpl	.-14     	; 0x269e <__divsf3_pse+0x2c>
    26ac:	29 d0       	rcall	.+82     	; 0x2700 <__divsf3_pse+0x8e>
    26ae:	fe 2f       	mov	r31, r30
    26b0:	27 d0       	rcall	.+78     	; 0x2700 <__divsf3_pse+0x8e>
    26b2:	66 0f       	add	r22, r22
    26b4:	77 1f       	adc	r23, r23
    26b6:	88 1f       	adc	r24, r24
    26b8:	bb 1f       	adc	r27, r27
    26ba:	26 17       	cp	r18, r22
    26bc:	37 07       	cpc	r19, r23
    26be:	48 07       	cpc	r20, r24
    26c0:	ab 07       	cpc	r26, r27
    26c2:	b0 e8       	ldi	r27, 0x80	; 128
    26c4:	09 f0       	breq	.+2      	; 0x26c8 <__divsf3_pse+0x56>
    26c6:	bb 0b       	sbc	r27, r27
    26c8:	80 2d       	mov	r24, r0
    26ca:	bf 01       	movw	r22, r30
    26cc:	ff 27       	eor	r31, r31
    26ce:	93 58       	subi	r25, 0x83	; 131
    26d0:	5f 4f       	sbci	r21, 0xFF	; 255
    26d2:	2a f0       	brmi	.+10     	; 0x26de <__divsf3_pse+0x6c>
    26d4:	9e 3f       	cpi	r25, 0xFE	; 254
    26d6:	51 05       	cpc	r21, r1
    26d8:	68 f0       	brcs	.+26     	; 0x26f4 <__divsf3_pse+0x82>
    26da:	61 c0       	rjmp	.+194    	; 0x279e <__fp_inf>
    26dc:	d0 c0       	rjmp	.+416    	; 0x287e <__fp_szero>
    26de:	5f 3f       	cpi	r21, 0xFF	; 255
    26e0:	ec f3       	brlt	.-6      	; 0x26dc <__divsf3_pse+0x6a>
    26e2:	98 3e       	cpi	r25, 0xE8	; 232
    26e4:	dc f3       	brlt	.-10     	; 0x26dc <__divsf3_pse+0x6a>
    26e6:	86 95       	lsr	r24
    26e8:	77 95       	ror	r23
    26ea:	67 95       	ror	r22
    26ec:	b7 95       	ror	r27
    26ee:	f7 95       	ror	r31
    26f0:	9f 5f       	subi	r25, 0xFF	; 255
    26f2:	c9 f7       	brne	.-14     	; 0x26e6 <__divsf3_pse+0x74>
    26f4:	88 0f       	add	r24, r24
    26f6:	91 1d       	adc	r25, r1
    26f8:	96 95       	lsr	r25
    26fa:	87 95       	ror	r24
    26fc:	97 f9       	bld	r25, 7
    26fe:	08 95       	ret
    2700:	e1 e0       	ldi	r30, 0x01	; 1
    2702:	66 0f       	add	r22, r22
    2704:	77 1f       	adc	r23, r23
    2706:	88 1f       	adc	r24, r24
    2708:	bb 1f       	adc	r27, r27
    270a:	62 17       	cp	r22, r18
    270c:	73 07       	cpc	r23, r19
    270e:	84 07       	cpc	r24, r20
    2710:	ba 07       	cpc	r27, r26
    2712:	20 f0       	brcs	.+8      	; 0x271c <__divsf3_pse+0xaa>
    2714:	62 1b       	sub	r22, r18
    2716:	73 0b       	sbc	r23, r19
    2718:	84 0b       	sbc	r24, r20
    271a:	ba 0b       	sbc	r27, r26
    271c:	ee 1f       	adc	r30, r30
    271e:	88 f7       	brcc	.-30     	; 0x2702 <__divsf3_pse+0x90>
    2720:	e0 95       	com	r30
    2722:	08 95       	ret

00002724 <__floatunsisf>:
    2724:	e8 94       	clt
    2726:	09 c0       	rjmp	.+18     	; 0x273a <__floatsisf+0x12>

00002728 <__floatsisf>:
    2728:	97 fb       	bst	r25, 7
    272a:	3e f4       	brtc	.+14     	; 0x273a <__floatsisf+0x12>
    272c:	90 95       	com	r25
    272e:	80 95       	com	r24
    2730:	70 95       	com	r23
    2732:	61 95       	neg	r22
    2734:	7f 4f       	sbci	r23, 0xFF	; 255
    2736:	8f 4f       	sbci	r24, 0xFF	; 255
    2738:	9f 4f       	sbci	r25, 0xFF	; 255
    273a:	99 23       	and	r25, r25
    273c:	a9 f0       	breq	.+42     	; 0x2768 <__floatsisf+0x40>
    273e:	f9 2f       	mov	r31, r25
    2740:	96 e9       	ldi	r25, 0x96	; 150
    2742:	bb 27       	eor	r27, r27
    2744:	93 95       	inc	r25
    2746:	f6 95       	lsr	r31
    2748:	87 95       	ror	r24
    274a:	77 95       	ror	r23
    274c:	67 95       	ror	r22
    274e:	b7 95       	ror	r27
    2750:	f1 11       	cpse	r31, r1
    2752:	f8 cf       	rjmp	.-16     	; 0x2744 <__floatsisf+0x1c>
    2754:	fa f4       	brpl	.+62     	; 0x2794 <__floatsisf+0x6c>
    2756:	bb 0f       	add	r27, r27
    2758:	11 f4       	brne	.+4      	; 0x275e <__floatsisf+0x36>
    275a:	60 ff       	sbrs	r22, 0
    275c:	1b c0       	rjmp	.+54     	; 0x2794 <__floatsisf+0x6c>
    275e:	6f 5f       	subi	r22, 0xFF	; 255
    2760:	7f 4f       	sbci	r23, 0xFF	; 255
    2762:	8f 4f       	sbci	r24, 0xFF	; 255
    2764:	9f 4f       	sbci	r25, 0xFF	; 255
    2766:	16 c0       	rjmp	.+44     	; 0x2794 <__floatsisf+0x6c>
    2768:	88 23       	and	r24, r24
    276a:	11 f0       	breq	.+4      	; 0x2770 <__floatsisf+0x48>
    276c:	96 e9       	ldi	r25, 0x96	; 150
    276e:	11 c0       	rjmp	.+34     	; 0x2792 <__floatsisf+0x6a>
    2770:	77 23       	and	r23, r23
    2772:	21 f0       	breq	.+8      	; 0x277c <__floatsisf+0x54>
    2774:	9e e8       	ldi	r25, 0x8E	; 142
    2776:	87 2f       	mov	r24, r23
    2778:	76 2f       	mov	r23, r22
    277a:	05 c0       	rjmp	.+10     	; 0x2786 <__floatsisf+0x5e>
    277c:	66 23       	and	r22, r22
    277e:	71 f0       	breq	.+28     	; 0x279c <__floatsisf+0x74>
    2780:	96 e8       	ldi	r25, 0x86	; 134
    2782:	86 2f       	mov	r24, r22
    2784:	70 e0       	ldi	r23, 0x00	; 0
    2786:	60 e0       	ldi	r22, 0x00	; 0
    2788:	2a f0       	brmi	.+10     	; 0x2794 <__floatsisf+0x6c>
    278a:	9a 95       	dec	r25
    278c:	66 0f       	add	r22, r22
    278e:	77 1f       	adc	r23, r23
    2790:	88 1f       	adc	r24, r24
    2792:	da f7       	brpl	.-10     	; 0x278a <__floatsisf+0x62>
    2794:	88 0f       	add	r24, r24
    2796:	96 95       	lsr	r25
    2798:	87 95       	ror	r24
    279a:	97 f9       	bld	r25, 7
    279c:	08 95       	ret

0000279e <__fp_inf>:
    279e:	97 f9       	bld	r25, 7
    27a0:	9f 67       	ori	r25, 0x7F	; 127
    27a2:	80 e8       	ldi	r24, 0x80	; 128
    27a4:	70 e0       	ldi	r23, 0x00	; 0
    27a6:	60 e0       	ldi	r22, 0x00	; 0
    27a8:	08 95       	ret

000027aa <__fp_nan>:
    27aa:	9f ef       	ldi	r25, 0xFF	; 255
    27ac:	80 ec       	ldi	r24, 0xC0	; 192
    27ae:	08 95       	ret

000027b0 <__fp_powser>:
    27b0:	df 93       	push	r29
    27b2:	cf 93       	push	r28
    27b4:	1f 93       	push	r17
    27b6:	0f 93       	push	r16
    27b8:	ff 92       	push	r15
    27ba:	ef 92       	push	r14
    27bc:	df 92       	push	r13
    27be:	7b 01       	movw	r14, r22
    27c0:	8c 01       	movw	r16, r24
    27c2:	68 94       	set
    27c4:	05 c0       	rjmp	.+10     	; 0x27d0 <__fp_powser+0x20>
    27c6:	da 2e       	mov	r13, r26
    27c8:	ef 01       	movw	r28, r30
    27ca:	72 d0       	rcall	.+228    	; 0x28b0 <__mulsf3x>
    27cc:	fe 01       	movw	r30, r28
    27ce:	e8 94       	clt
    27d0:	a5 91       	lpm	r26, Z+
    27d2:	25 91       	lpm	r18, Z+
    27d4:	35 91       	lpm	r19, Z+
    27d6:	45 91       	lpm	r20, Z+
    27d8:	55 91       	lpm	r21, Z+
    27da:	ae f3       	brts	.-22     	; 0x27c6 <__fp_powser+0x16>
    27dc:	ef 01       	movw	r28, r30
    27de:	d4 d0       	rcall	.+424    	; 0x2988 <__addsf3x>
    27e0:	fe 01       	movw	r30, r28
    27e2:	97 01       	movw	r18, r14
    27e4:	a8 01       	movw	r20, r16
    27e6:	da 94       	dec	r13
    27e8:	79 f7       	brne	.-34     	; 0x27c8 <__fp_powser+0x18>
    27ea:	df 90       	pop	r13
    27ec:	ef 90       	pop	r14
    27ee:	ff 90       	pop	r15
    27f0:	0f 91       	pop	r16
    27f2:	1f 91       	pop	r17
    27f4:	cf 91       	pop	r28
    27f6:	df 91       	pop	r29
    27f8:	08 95       	ret

000027fa <__fp_pscA>:
    27fa:	00 24       	eor	r0, r0
    27fc:	0a 94       	dec	r0
    27fe:	16 16       	cp	r1, r22
    2800:	17 06       	cpc	r1, r23
    2802:	18 06       	cpc	r1, r24
    2804:	09 06       	cpc	r0, r25
    2806:	08 95       	ret

00002808 <__fp_pscB>:
    2808:	00 24       	eor	r0, r0
    280a:	0a 94       	dec	r0
    280c:	12 16       	cp	r1, r18
    280e:	13 06       	cpc	r1, r19
    2810:	14 06       	cpc	r1, r20
    2812:	05 06       	cpc	r0, r21
    2814:	08 95       	ret

00002816 <__fp_round>:
    2816:	09 2e       	mov	r0, r25
    2818:	03 94       	inc	r0
    281a:	00 0c       	add	r0, r0
    281c:	11 f4       	brne	.+4      	; 0x2822 <__fp_round+0xc>
    281e:	88 23       	and	r24, r24
    2820:	52 f0       	brmi	.+20     	; 0x2836 <__fp_round+0x20>
    2822:	bb 0f       	add	r27, r27
    2824:	40 f4       	brcc	.+16     	; 0x2836 <__fp_round+0x20>
    2826:	bf 2b       	or	r27, r31
    2828:	11 f4       	brne	.+4      	; 0x282e <__fp_round+0x18>
    282a:	60 ff       	sbrs	r22, 0
    282c:	04 c0       	rjmp	.+8      	; 0x2836 <__fp_round+0x20>
    282e:	6f 5f       	subi	r22, 0xFF	; 255
    2830:	7f 4f       	sbci	r23, 0xFF	; 255
    2832:	8f 4f       	sbci	r24, 0xFF	; 255
    2834:	9f 4f       	sbci	r25, 0xFF	; 255
    2836:	08 95       	ret

00002838 <__fp_split3>:
    2838:	57 fd       	sbrc	r21, 7
    283a:	90 58       	subi	r25, 0x80	; 128
    283c:	44 0f       	add	r20, r20
    283e:	55 1f       	adc	r21, r21
    2840:	59 f0       	breq	.+22     	; 0x2858 <__fp_splitA+0x10>
    2842:	5f 3f       	cpi	r21, 0xFF	; 255
    2844:	71 f0       	breq	.+28     	; 0x2862 <__fp_splitA+0x1a>
    2846:	47 95       	ror	r20

00002848 <__fp_splitA>:
    2848:	88 0f       	add	r24, r24
    284a:	97 fb       	bst	r25, 7
    284c:	99 1f       	adc	r25, r25
    284e:	61 f0       	breq	.+24     	; 0x2868 <__fp_splitA+0x20>
    2850:	9f 3f       	cpi	r25, 0xFF	; 255
    2852:	79 f0       	breq	.+30     	; 0x2872 <__fp_splitA+0x2a>
    2854:	87 95       	ror	r24
    2856:	08 95       	ret
    2858:	12 16       	cp	r1, r18
    285a:	13 06       	cpc	r1, r19
    285c:	14 06       	cpc	r1, r20
    285e:	55 1f       	adc	r21, r21
    2860:	f2 cf       	rjmp	.-28     	; 0x2846 <__fp_split3+0xe>
    2862:	46 95       	lsr	r20
    2864:	f1 df       	rcall	.-30     	; 0x2848 <__fp_splitA>
    2866:	08 c0       	rjmp	.+16     	; 0x2878 <__fp_splitA+0x30>
    2868:	16 16       	cp	r1, r22
    286a:	17 06       	cpc	r1, r23
    286c:	18 06       	cpc	r1, r24
    286e:	99 1f       	adc	r25, r25
    2870:	f1 cf       	rjmp	.-30     	; 0x2854 <__fp_splitA+0xc>
    2872:	86 95       	lsr	r24
    2874:	71 05       	cpc	r23, r1
    2876:	61 05       	cpc	r22, r1
    2878:	08 94       	sec
    287a:	08 95       	ret

0000287c <__fp_zero>:
    287c:	e8 94       	clt

0000287e <__fp_szero>:
    287e:	bb 27       	eor	r27, r27
    2880:	66 27       	eor	r22, r22
    2882:	77 27       	eor	r23, r23
    2884:	cb 01       	movw	r24, r22
    2886:	97 f9       	bld	r25, 7
    2888:	08 95       	ret

0000288a <inverse>:
    288a:	9b 01       	movw	r18, r22
    288c:	ac 01       	movw	r20, r24
    288e:	60 e0       	ldi	r22, 0x00	; 0
    2890:	70 e0       	ldi	r23, 0x00	; 0
    2892:	80 e8       	ldi	r24, 0x80	; 128
    2894:	9f e3       	ldi	r25, 0x3F	; 63
    2896:	cb c0       	rjmp	.+406    	; 0x2a2e <__divsf3>

00002898 <__mulsf3>:
    2898:	0b d0       	rcall	.+22     	; 0x28b0 <__mulsf3x>
    289a:	bd cf       	rjmp	.-134    	; 0x2816 <__fp_round>
    289c:	ae df       	rcall	.-164    	; 0x27fa <__fp_pscA>
    289e:	28 f0       	brcs	.+10     	; 0x28aa <__mulsf3+0x12>
    28a0:	b3 df       	rcall	.-154    	; 0x2808 <__fp_pscB>
    28a2:	18 f0       	brcs	.+6      	; 0x28aa <__mulsf3+0x12>
    28a4:	95 23       	and	r25, r21
    28a6:	09 f0       	breq	.+2      	; 0x28aa <__mulsf3+0x12>
    28a8:	7a cf       	rjmp	.-268    	; 0x279e <__fp_inf>
    28aa:	7f cf       	rjmp	.-258    	; 0x27aa <__fp_nan>
    28ac:	11 24       	eor	r1, r1
    28ae:	e7 cf       	rjmp	.-50     	; 0x287e <__fp_szero>

000028b0 <__mulsf3x>:
    28b0:	c3 df       	rcall	.-122    	; 0x2838 <__fp_split3>
    28b2:	a0 f3       	brcs	.-24     	; 0x289c <__mulsf3+0x4>

000028b4 <__mulsf3_pse>:
    28b4:	95 9f       	mul	r25, r21
    28b6:	d1 f3       	breq	.-12     	; 0x28ac <__mulsf3+0x14>
    28b8:	95 0f       	add	r25, r21
    28ba:	50 e0       	ldi	r21, 0x00	; 0
    28bc:	55 1f       	adc	r21, r21
    28be:	62 9f       	mul	r22, r18
    28c0:	f0 01       	movw	r30, r0
    28c2:	72 9f       	mul	r23, r18
    28c4:	bb 27       	eor	r27, r27
    28c6:	f0 0d       	add	r31, r0
    28c8:	b1 1d       	adc	r27, r1
    28ca:	63 9f       	mul	r22, r19
    28cc:	aa 27       	eor	r26, r26
    28ce:	f0 0d       	add	r31, r0
    28d0:	b1 1d       	adc	r27, r1
    28d2:	aa 1f       	adc	r26, r26
    28d4:	64 9f       	mul	r22, r20
    28d6:	66 27       	eor	r22, r22
    28d8:	b0 0d       	add	r27, r0
    28da:	a1 1d       	adc	r26, r1
    28dc:	66 1f       	adc	r22, r22
    28de:	82 9f       	mul	r24, r18
    28e0:	22 27       	eor	r18, r18
    28e2:	b0 0d       	add	r27, r0
    28e4:	a1 1d       	adc	r26, r1
    28e6:	62 1f       	adc	r22, r18
    28e8:	73 9f       	mul	r23, r19
    28ea:	b0 0d       	add	r27, r0
    28ec:	a1 1d       	adc	r26, r1
    28ee:	62 1f       	adc	r22, r18
    28f0:	83 9f       	mul	r24, r19
    28f2:	a0 0d       	add	r26, r0
    28f4:	61 1d       	adc	r22, r1
    28f6:	22 1f       	adc	r18, r18
    28f8:	74 9f       	mul	r23, r20
    28fa:	33 27       	eor	r19, r19
    28fc:	a0 0d       	add	r26, r0
    28fe:	61 1d       	adc	r22, r1
    2900:	23 1f       	adc	r18, r19
    2902:	84 9f       	mul	r24, r20
    2904:	60 0d       	add	r22, r0
    2906:	21 1d       	adc	r18, r1
    2908:	82 2f       	mov	r24, r18
    290a:	76 2f       	mov	r23, r22
    290c:	6a 2f       	mov	r22, r26
    290e:	11 24       	eor	r1, r1
    2910:	9f 57       	subi	r25, 0x7F	; 127
    2912:	50 40       	sbci	r21, 0x00	; 0
    2914:	8a f0       	brmi	.+34     	; 0x2938 <__mulsf3_pse+0x84>
    2916:	e1 f0       	breq	.+56     	; 0x2950 <__mulsf3_pse+0x9c>
    2918:	88 23       	and	r24, r24
    291a:	4a f0       	brmi	.+18     	; 0x292e <__mulsf3_pse+0x7a>
    291c:	ee 0f       	add	r30, r30
    291e:	ff 1f       	adc	r31, r31
    2920:	bb 1f       	adc	r27, r27
    2922:	66 1f       	adc	r22, r22
    2924:	77 1f       	adc	r23, r23
    2926:	88 1f       	adc	r24, r24
    2928:	91 50       	subi	r25, 0x01	; 1
    292a:	50 40       	sbci	r21, 0x00	; 0
    292c:	a9 f7       	brne	.-22     	; 0x2918 <__mulsf3_pse+0x64>
    292e:	9e 3f       	cpi	r25, 0xFE	; 254
    2930:	51 05       	cpc	r21, r1
    2932:	70 f0       	brcs	.+28     	; 0x2950 <__mulsf3_pse+0x9c>
    2934:	34 cf       	rjmp	.-408    	; 0x279e <__fp_inf>
    2936:	a3 cf       	rjmp	.-186    	; 0x287e <__fp_szero>
    2938:	5f 3f       	cpi	r21, 0xFF	; 255
    293a:	ec f3       	brlt	.-6      	; 0x2936 <__mulsf3_pse+0x82>
    293c:	98 3e       	cpi	r25, 0xE8	; 232
    293e:	dc f3       	brlt	.-10     	; 0x2936 <__mulsf3_pse+0x82>
    2940:	86 95       	lsr	r24
    2942:	77 95       	ror	r23
    2944:	67 95       	ror	r22
    2946:	b7 95       	ror	r27
    2948:	f7 95       	ror	r31
    294a:	e7 95       	ror	r30
    294c:	9f 5f       	subi	r25, 0xFF	; 255
    294e:	c1 f7       	brne	.-16     	; 0x2940 <__mulsf3_pse+0x8c>
    2950:	fe 2b       	or	r31, r30
    2952:	88 0f       	add	r24, r24
    2954:	91 1d       	adc	r25, r1
    2956:	96 95       	lsr	r25
    2958:	87 95       	ror	r24
    295a:	97 f9       	bld	r25, 7
    295c:	08 95       	ret

0000295e <square>:
    295e:	9b 01       	movw	r18, r22
    2960:	ac 01       	movw	r20, r24
    2962:	9a cf       	rjmp	.-204    	; 0x2898 <__mulsf3>

00002964 <__subsf3>:
    2964:	50 58       	subi	r21, 0x80	; 128

00002966 <__addsf3>:
    2966:	bb 27       	eor	r27, r27
    2968:	aa 27       	eor	r26, r26
    296a:	0e d0       	rcall	.+28     	; 0x2988 <__addsf3x>
    296c:	54 cf       	rjmp	.-344    	; 0x2816 <__fp_round>
    296e:	45 df       	rcall	.-374    	; 0x27fa <__fp_pscA>
    2970:	30 f0       	brcs	.+12     	; 0x297e <__addsf3+0x18>
    2972:	4a df       	rcall	.-364    	; 0x2808 <__fp_pscB>
    2974:	20 f0       	brcs	.+8      	; 0x297e <__addsf3+0x18>
    2976:	31 f4       	brne	.+12     	; 0x2984 <__addsf3+0x1e>
    2978:	9f 3f       	cpi	r25, 0xFF	; 255
    297a:	11 f4       	brne	.+4      	; 0x2980 <__addsf3+0x1a>
    297c:	1e f4       	brtc	.+6      	; 0x2984 <__addsf3+0x1e>
    297e:	15 cf       	rjmp	.-470    	; 0x27aa <__fp_nan>
    2980:	0e f4       	brtc	.+2      	; 0x2984 <__addsf3+0x1e>
    2982:	e0 95       	com	r30
    2984:	e7 fb       	bst	r30, 7
    2986:	0b cf       	rjmp	.-490    	; 0x279e <__fp_inf>

00002988 <__addsf3x>:
    2988:	e9 2f       	mov	r30, r25
    298a:	56 df       	rcall	.-340    	; 0x2838 <__fp_split3>
    298c:	80 f3       	brcs	.-32     	; 0x296e <__addsf3+0x8>
    298e:	ba 17       	cp	r27, r26
    2990:	62 07       	cpc	r22, r18
    2992:	73 07       	cpc	r23, r19
    2994:	84 07       	cpc	r24, r20
    2996:	95 07       	cpc	r25, r21
    2998:	18 f0       	brcs	.+6      	; 0x29a0 <__addsf3x+0x18>
    299a:	71 f4       	brne	.+28     	; 0x29b8 <__addsf3x+0x30>
    299c:	9e f5       	brtc	.+102    	; 0x2a04 <__addsf3x+0x7c>
    299e:	6e cf       	rjmp	.-292    	; 0x287c <__fp_zero>
    29a0:	0e f4       	brtc	.+2      	; 0x29a4 <__addsf3x+0x1c>
    29a2:	e0 95       	com	r30
    29a4:	0b 2e       	mov	r0, r27
    29a6:	ba 2f       	mov	r27, r26
    29a8:	a0 2d       	mov	r26, r0
    29aa:	0b 01       	movw	r0, r22
    29ac:	b9 01       	movw	r22, r18
    29ae:	90 01       	movw	r18, r0
    29b0:	0c 01       	movw	r0, r24
    29b2:	ca 01       	movw	r24, r20
    29b4:	a0 01       	movw	r20, r0
    29b6:	11 24       	eor	r1, r1
    29b8:	ff 27       	eor	r31, r31
    29ba:	59 1b       	sub	r21, r25
    29bc:	99 f0       	breq	.+38     	; 0x29e4 <__addsf3x+0x5c>
    29be:	59 3f       	cpi	r21, 0xF9	; 249
    29c0:	50 f4       	brcc	.+20     	; 0x29d6 <__addsf3x+0x4e>
    29c2:	50 3e       	cpi	r21, 0xE0	; 224
    29c4:	68 f1       	brcs	.+90     	; 0x2a20 <__addsf3x+0x98>
    29c6:	1a 16       	cp	r1, r26
    29c8:	f0 40       	sbci	r31, 0x00	; 0
    29ca:	a2 2f       	mov	r26, r18
    29cc:	23 2f       	mov	r18, r19
    29ce:	34 2f       	mov	r19, r20
    29d0:	44 27       	eor	r20, r20
    29d2:	58 5f       	subi	r21, 0xF8	; 248
    29d4:	f3 cf       	rjmp	.-26     	; 0x29bc <__addsf3x+0x34>
    29d6:	46 95       	lsr	r20
    29d8:	37 95       	ror	r19
    29da:	27 95       	ror	r18
    29dc:	a7 95       	ror	r26
    29de:	f0 40       	sbci	r31, 0x00	; 0
    29e0:	53 95       	inc	r21
    29e2:	c9 f7       	brne	.-14     	; 0x29d6 <__addsf3x+0x4e>
    29e4:	7e f4       	brtc	.+30     	; 0x2a04 <__addsf3x+0x7c>
    29e6:	1f 16       	cp	r1, r31
    29e8:	ba 0b       	sbc	r27, r26
    29ea:	62 0b       	sbc	r22, r18
    29ec:	73 0b       	sbc	r23, r19
    29ee:	84 0b       	sbc	r24, r20
    29f0:	ba f0       	brmi	.+46     	; 0x2a20 <__addsf3x+0x98>
    29f2:	91 50       	subi	r25, 0x01	; 1
    29f4:	a1 f0       	breq	.+40     	; 0x2a1e <__addsf3x+0x96>
    29f6:	ff 0f       	add	r31, r31
    29f8:	bb 1f       	adc	r27, r27
    29fa:	66 1f       	adc	r22, r22
    29fc:	77 1f       	adc	r23, r23
    29fe:	88 1f       	adc	r24, r24
    2a00:	c2 f7       	brpl	.-16     	; 0x29f2 <__addsf3x+0x6a>
    2a02:	0e c0       	rjmp	.+28     	; 0x2a20 <__addsf3x+0x98>
    2a04:	ba 0f       	add	r27, r26
    2a06:	62 1f       	adc	r22, r18
    2a08:	73 1f       	adc	r23, r19
    2a0a:	84 1f       	adc	r24, r20
    2a0c:	48 f4       	brcc	.+18     	; 0x2a20 <__addsf3x+0x98>
    2a0e:	87 95       	ror	r24
    2a10:	77 95       	ror	r23
    2a12:	67 95       	ror	r22
    2a14:	b7 95       	ror	r27
    2a16:	f7 95       	ror	r31
    2a18:	9e 3f       	cpi	r25, 0xFE	; 254
    2a1a:	08 f0       	brcs	.+2      	; 0x2a1e <__addsf3x+0x96>
    2a1c:	b3 cf       	rjmp	.-154    	; 0x2984 <__addsf3+0x1e>
    2a1e:	93 95       	inc	r25
    2a20:	88 0f       	add	r24, r24
    2a22:	08 f0       	brcs	.+2      	; 0x2a26 <__addsf3x+0x9e>
    2a24:	99 27       	eor	r25, r25
    2a26:	ee 0f       	add	r30, r30
    2a28:	97 95       	ror	r25
    2a2a:	87 95       	ror	r24
    2a2c:	08 95       	ret

00002a2e <__divsf3>:
    2a2e:	1f de       	rcall	.-962    	; 0x266e <__divsf3x>
    2a30:	f2 ce       	rjmp	.-540    	; 0x2816 <__fp_round>

00002a32 <__divmodhi4>:
    2a32:	97 fb       	bst	r25, 7
    2a34:	09 2e       	mov	r0, r25
    2a36:	07 26       	eor	r0, r23
    2a38:	0a d0       	rcall	.+20     	; 0x2a4e <__divmodhi4_neg1>
    2a3a:	77 fd       	sbrc	r23, 7
    2a3c:	04 d0       	rcall	.+8      	; 0x2a46 <__divmodhi4_neg2>
    2a3e:	80 d0       	rcall	.+256    	; 0x2b40 <__udivmodhi4>
    2a40:	06 d0       	rcall	.+12     	; 0x2a4e <__divmodhi4_neg1>
    2a42:	00 20       	and	r0, r0
    2a44:	1a f4       	brpl	.+6      	; 0x2a4c <__divmodhi4_exit>

00002a46 <__divmodhi4_neg2>:
    2a46:	70 95       	com	r23
    2a48:	61 95       	neg	r22
    2a4a:	7f 4f       	sbci	r23, 0xFF	; 255

00002a4c <__divmodhi4_exit>:
    2a4c:	08 95       	ret

00002a4e <__divmodhi4_neg1>:
    2a4e:	f6 f7       	brtc	.-4      	; 0x2a4c <__divmodhi4_exit>
    2a50:	90 95       	com	r25
    2a52:	81 95       	neg	r24
    2a54:	9f 4f       	sbci	r25, 0xFF	; 255
    2a56:	08 95       	ret

00002a58 <__udivmodsi4>:
    2a58:	a1 e2       	ldi	r26, 0x21	; 33
    2a5a:	1a 2e       	mov	r1, r26
    2a5c:	aa 1b       	sub	r26, r26
    2a5e:	bb 1b       	sub	r27, r27
    2a60:	fd 01       	movw	r30, r26
    2a62:	0d c0       	rjmp	.+26     	; 0x2a7e <__udivmodsi4_ep>

00002a64 <__udivmodsi4_loop>:
    2a64:	aa 1f       	adc	r26, r26
    2a66:	bb 1f       	adc	r27, r27
    2a68:	ee 1f       	adc	r30, r30
    2a6a:	ff 1f       	adc	r31, r31
    2a6c:	a2 17       	cp	r26, r18
    2a6e:	b3 07       	cpc	r27, r19
    2a70:	e4 07       	cpc	r30, r20
    2a72:	f5 07       	cpc	r31, r21
    2a74:	20 f0       	brcs	.+8      	; 0x2a7e <__udivmodsi4_ep>
    2a76:	a2 1b       	sub	r26, r18
    2a78:	b3 0b       	sbc	r27, r19
    2a7a:	e4 0b       	sbc	r30, r20
    2a7c:	f5 0b       	sbc	r31, r21

00002a7e <__udivmodsi4_ep>:
    2a7e:	66 1f       	adc	r22, r22
    2a80:	77 1f       	adc	r23, r23
    2a82:	88 1f       	adc	r24, r24
    2a84:	99 1f       	adc	r25, r25
    2a86:	1a 94       	dec	r1
    2a88:	69 f7       	brne	.-38     	; 0x2a64 <__udivmodsi4_loop>
    2a8a:	60 95       	com	r22
    2a8c:	70 95       	com	r23
    2a8e:	80 95       	com	r24
    2a90:	90 95       	com	r25
    2a92:	9b 01       	movw	r18, r22
    2a94:	ac 01       	movw	r20, r24
    2a96:	bd 01       	movw	r22, r26
    2a98:	cf 01       	movw	r24, r30
    2a9a:	08 95       	ret

00002a9c <__divmodsi4>:
    2a9c:	97 fb       	bst	r25, 7
    2a9e:	09 2e       	mov	r0, r25
    2aa0:	05 26       	eor	r0, r21
    2aa2:	0e d0       	rcall	.+28     	; 0x2ac0 <__divmodsi4_neg1>
    2aa4:	57 fd       	sbrc	r21, 7
    2aa6:	04 d0       	rcall	.+8      	; 0x2ab0 <__divmodsi4_neg2>
    2aa8:	d7 df       	rcall	.-82     	; 0x2a58 <__udivmodsi4>
    2aaa:	0a d0       	rcall	.+20     	; 0x2ac0 <__divmodsi4_neg1>
    2aac:	00 1c       	adc	r0, r0
    2aae:	38 f4       	brcc	.+14     	; 0x2abe <__divmodsi4_exit>

00002ab0 <__divmodsi4_neg2>:
    2ab0:	50 95       	com	r21
    2ab2:	40 95       	com	r20
    2ab4:	30 95       	com	r19
    2ab6:	21 95       	neg	r18
    2ab8:	3f 4f       	sbci	r19, 0xFF	; 255
    2aba:	4f 4f       	sbci	r20, 0xFF	; 255
    2abc:	5f 4f       	sbci	r21, 0xFF	; 255

00002abe <__divmodsi4_exit>:
    2abe:	08 95       	ret

00002ac0 <__divmodsi4_neg1>:
    2ac0:	f6 f7       	brtc	.-4      	; 0x2abe <__divmodsi4_exit>
    2ac2:	90 95       	com	r25
    2ac4:	80 95       	com	r24
    2ac6:	70 95       	com	r23
    2ac8:	61 95       	neg	r22
    2aca:	7f 4f       	sbci	r23, 0xFF	; 255
    2acc:	8f 4f       	sbci	r24, 0xFF	; 255
    2ace:	9f 4f       	sbci	r25, 0xFF	; 255
    2ad0:	08 95       	ret

00002ad2 <__prologue_saves__>:
    2ad2:	2f 92       	push	r2
    2ad4:	3f 92       	push	r3
    2ad6:	4f 92       	push	r4
    2ad8:	5f 92       	push	r5
    2ada:	6f 92       	push	r6
    2adc:	7f 92       	push	r7
    2ade:	8f 92       	push	r8
    2ae0:	9f 92       	push	r9
    2ae2:	af 92       	push	r10
    2ae4:	bf 92       	push	r11
    2ae6:	cf 92       	push	r12
    2ae8:	df 92       	push	r13
    2aea:	ef 92       	push	r14
    2aec:	ff 92       	push	r15
    2aee:	0f 93       	push	r16
    2af0:	1f 93       	push	r17
    2af2:	cf 93       	push	r28
    2af4:	df 93       	push	r29
    2af6:	cd b7       	in	r28, 0x3d	; 61
    2af8:	de b7       	in	r29, 0x3e	; 62
    2afa:	ca 1b       	sub	r28, r26
    2afc:	db 0b       	sbc	r29, r27
    2afe:	0f b6       	in	r0, 0x3f	; 63
    2b00:	f8 94       	cli
    2b02:	de bf       	out	0x3e, r29	; 62
    2b04:	0f be       	out	0x3f, r0	; 63
    2b06:	cd bf       	out	0x3d, r28	; 61
    2b08:	09 94       	ijmp

00002b0a <__epilogue_restores__>:
    2b0a:	2a 88       	ldd	r2, Y+18	; 0x12
    2b0c:	39 88       	ldd	r3, Y+17	; 0x11
    2b0e:	48 88       	ldd	r4, Y+16	; 0x10
    2b10:	5f 84       	ldd	r5, Y+15	; 0x0f
    2b12:	6e 84       	ldd	r6, Y+14	; 0x0e
    2b14:	7d 84       	ldd	r7, Y+13	; 0x0d
    2b16:	8c 84       	ldd	r8, Y+12	; 0x0c
    2b18:	9b 84       	ldd	r9, Y+11	; 0x0b
    2b1a:	aa 84       	ldd	r10, Y+10	; 0x0a
    2b1c:	b9 84       	ldd	r11, Y+9	; 0x09
    2b1e:	c8 84       	ldd	r12, Y+8	; 0x08
    2b20:	df 80       	ldd	r13, Y+7	; 0x07
    2b22:	ee 80       	ldd	r14, Y+6	; 0x06
    2b24:	fd 80       	ldd	r15, Y+5	; 0x05
    2b26:	0c 81       	ldd	r16, Y+4	; 0x04
    2b28:	1b 81       	ldd	r17, Y+3	; 0x03
    2b2a:	aa 81       	ldd	r26, Y+2	; 0x02
    2b2c:	b9 81       	ldd	r27, Y+1	; 0x01
    2b2e:	ce 0f       	add	r28, r30
    2b30:	d1 1d       	adc	r29, r1
    2b32:	0f b6       	in	r0, 0x3f	; 63
    2b34:	f8 94       	cli
    2b36:	de bf       	out	0x3e, r29	; 62
    2b38:	0f be       	out	0x3f, r0	; 63
    2b3a:	cd bf       	out	0x3d, r28	; 61
    2b3c:	ed 01       	movw	r28, r26
    2b3e:	08 95       	ret

00002b40 <__udivmodhi4>:
    2b40:	aa 1b       	sub	r26, r26
    2b42:	bb 1b       	sub	r27, r27
    2b44:	51 e1       	ldi	r21, 0x11	; 17
    2b46:	07 c0       	rjmp	.+14     	; 0x2b56 <__udivmodhi4_ep>

00002b48 <__udivmodhi4_loop>:
    2b48:	aa 1f       	adc	r26, r26
    2b4a:	bb 1f       	adc	r27, r27
    2b4c:	a6 17       	cp	r26, r22
    2b4e:	b7 07       	cpc	r27, r23
    2b50:	10 f0       	brcs	.+4      	; 0x2b56 <__udivmodhi4_ep>
    2b52:	a6 1b       	sub	r26, r22
    2b54:	b7 0b       	sbc	r27, r23

00002b56 <__udivmodhi4_ep>:
    2b56:	88 1f       	adc	r24, r24
    2b58:	99 1f       	adc	r25, r25
    2b5a:	5a 95       	dec	r21
    2b5c:	a9 f7       	brne	.-22     	; 0x2b48 <__udivmodhi4_loop>
    2b5e:	80 95       	com	r24
    2b60:	90 95       	com	r25
    2b62:	bc 01       	movw	r22, r24
    2b64:	cd 01       	movw	r24, r26
    2b66:	08 95       	ret

00002b68 <__ftoa_engine>:
    2b68:	28 30       	cpi	r18, 0x08	; 8
    2b6a:	08 f0       	brcs	.+2      	; 0x2b6e <__ftoa_engine+0x6>
    2b6c:	27 e0       	ldi	r18, 0x07	; 7
    2b6e:	33 27       	eor	r19, r19
    2b70:	da 01       	movw	r26, r20
    2b72:	99 0f       	add	r25, r25
    2b74:	31 1d       	adc	r19, r1
    2b76:	87 fd       	sbrc	r24, 7
    2b78:	91 60       	ori	r25, 0x01	; 1
    2b7a:	00 96       	adiw	r24, 0x00	; 0
    2b7c:	61 05       	cpc	r22, r1
    2b7e:	71 05       	cpc	r23, r1
    2b80:	39 f4       	brne	.+14     	; 0x2b90 <__ftoa_engine+0x28>
    2b82:	32 60       	ori	r19, 0x02	; 2
    2b84:	2e 5f       	subi	r18, 0xFE	; 254
    2b86:	3d 93       	st	X+, r19
    2b88:	30 e3       	ldi	r19, 0x30	; 48
    2b8a:	2a 95       	dec	r18
    2b8c:	e1 f7       	brne	.-8      	; 0x2b86 <__ftoa_engine+0x1e>
    2b8e:	08 95       	ret
    2b90:	9f 3f       	cpi	r25, 0xFF	; 255
    2b92:	30 f0       	brcs	.+12     	; 0x2ba0 <__ftoa_engine+0x38>
    2b94:	80 38       	cpi	r24, 0x80	; 128
    2b96:	71 05       	cpc	r23, r1
    2b98:	61 05       	cpc	r22, r1
    2b9a:	09 f0       	breq	.+2      	; 0x2b9e <__ftoa_engine+0x36>
    2b9c:	3c 5f       	subi	r19, 0xFC	; 252
    2b9e:	3c 5f       	subi	r19, 0xFC	; 252
    2ba0:	3d 93       	st	X+, r19
    2ba2:	91 30       	cpi	r25, 0x01	; 1
    2ba4:	08 f0       	brcs	.+2      	; 0x2ba8 <__ftoa_engine+0x40>
    2ba6:	80 68       	ori	r24, 0x80	; 128
    2ba8:	91 1d       	adc	r25, r1
    2baa:	df 93       	push	r29
    2bac:	cf 93       	push	r28
    2bae:	1f 93       	push	r17
    2bb0:	0f 93       	push	r16
    2bb2:	ff 92       	push	r15
    2bb4:	ef 92       	push	r14
    2bb6:	19 2f       	mov	r17, r25
    2bb8:	98 7f       	andi	r25, 0xF8	; 248
    2bba:	96 95       	lsr	r25
    2bbc:	e9 2f       	mov	r30, r25
    2bbe:	96 95       	lsr	r25
    2bc0:	96 95       	lsr	r25
    2bc2:	e9 0f       	add	r30, r25
    2bc4:	ff 27       	eor	r31, r31
    2bc6:	e5 5e       	subi	r30, 0xE5	; 229
    2bc8:	fe 4f       	sbci	r31, 0xFE	; 254
    2bca:	99 27       	eor	r25, r25
    2bcc:	33 27       	eor	r19, r19
    2bce:	ee 24       	eor	r14, r14
    2bd0:	ff 24       	eor	r15, r15
    2bd2:	a7 01       	movw	r20, r14
    2bd4:	e7 01       	movw	r28, r14
    2bd6:	05 90       	lpm	r0, Z+
    2bd8:	08 94       	sec
    2bda:	07 94       	ror	r0
    2bdc:	28 f4       	brcc	.+10     	; 0x2be8 <__ftoa_engine+0x80>
    2bde:	36 0f       	add	r19, r22
    2be0:	e7 1e       	adc	r14, r23
    2be2:	f8 1e       	adc	r15, r24
    2be4:	49 1f       	adc	r20, r25
    2be6:	51 1d       	adc	r21, r1
    2be8:	66 0f       	add	r22, r22
    2bea:	77 1f       	adc	r23, r23
    2bec:	88 1f       	adc	r24, r24
    2bee:	99 1f       	adc	r25, r25
    2bf0:	06 94       	lsr	r0
    2bf2:	a1 f7       	brne	.-24     	; 0x2bdc <__ftoa_engine+0x74>
    2bf4:	05 90       	lpm	r0, Z+
    2bf6:	07 94       	ror	r0
    2bf8:	28 f4       	brcc	.+10     	; 0x2c04 <__ftoa_engine+0x9c>
    2bfa:	e7 0e       	add	r14, r23
    2bfc:	f8 1e       	adc	r15, r24
    2bfe:	49 1f       	adc	r20, r25
    2c00:	56 1f       	adc	r21, r22
    2c02:	c1 1d       	adc	r28, r1
    2c04:	77 0f       	add	r23, r23
    2c06:	88 1f       	adc	r24, r24
    2c08:	99 1f       	adc	r25, r25
    2c0a:	66 1f       	adc	r22, r22
    2c0c:	06 94       	lsr	r0
    2c0e:	a1 f7       	brne	.-24     	; 0x2bf8 <__ftoa_engine+0x90>
    2c10:	05 90       	lpm	r0, Z+
    2c12:	07 94       	ror	r0
    2c14:	28 f4       	brcc	.+10     	; 0x2c20 <__ftoa_engine+0xb8>
    2c16:	f8 0e       	add	r15, r24
    2c18:	49 1f       	adc	r20, r25
    2c1a:	56 1f       	adc	r21, r22
    2c1c:	c7 1f       	adc	r28, r23
    2c1e:	d1 1d       	adc	r29, r1
    2c20:	88 0f       	add	r24, r24
    2c22:	99 1f       	adc	r25, r25
    2c24:	66 1f       	adc	r22, r22
    2c26:	77 1f       	adc	r23, r23
    2c28:	06 94       	lsr	r0
    2c2a:	a1 f7       	brne	.-24     	; 0x2c14 <__ftoa_engine+0xac>
    2c2c:	05 90       	lpm	r0, Z+
    2c2e:	07 94       	ror	r0
    2c30:	20 f4       	brcc	.+8      	; 0x2c3a <__ftoa_engine+0xd2>
    2c32:	49 0f       	add	r20, r25
    2c34:	56 1f       	adc	r21, r22
    2c36:	c7 1f       	adc	r28, r23
    2c38:	d8 1f       	adc	r29, r24
    2c3a:	99 0f       	add	r25, r25
    2c3c:	66 1f       	adc	r22, r22
    2c3e:	77 1f       	adc	r23, r23
    2c40:	88 1f       	adc	r24, r24
    2c42:	06 94       	lsr	r0
    2c44:	a9 f7       	brne	.-22     	; 0x2c30 <__ftoa_engine+0xc8>
    2c46:	84 91       	lpm	r24, Z+
    2c48:	10 95       	com	r17
    2c4a:	17 70       	andi	r17, 0x07	; 7
    2c4c:	41 f0       	breq	.+16     	; 0x2c5e <__ftoa_engine+0xf6>
    2c4e:	d6 95       	lsr	r29
    2c50:	c7 95       	ror	r28
    2c52:	57 95       	ror	r21
    2c54:	47 95       	ror	r20
    2c56:	f7 94       	ror	r15
    2c58:	e7 94       	ror	r14
    2c5a:	1a 95       	dec	r17
    2c5c:	c1 f7       	brne	.-16     	; 0x2c4e <__ftoa_engine+0xe6>
    2c5e:	e1 ec       	ldi	r30, 0xC1	; 193
    2c60:	f0 e0       	ldi	r31, 0x00	; 0
    2c62:	68 94       	set
    2c64:	15 90       	lpm	r1, Z+
    2c66:	15 91       	lpm	r17, Z+
    2c68:	35 91       	lpm	r19, Z+
    2c6a:	65 91       	lpm	r22, Z+
    2c6c:	95 91       	lpm	r25, Z+
    2c6e:	05 90       	lpm	r0, Z+
    2c70:	7f e2       	ldi	r23, 0x2F	; 47
    2c72:	73 95       	inc	r23
    2c74:	e1 18       	sub	r14, r1
    2c76:	f1 0a       	sbc	r15, r17
    2c78:	43 0b       	sbc	r20, r19
    2c7a:	56 0b       	sbc	r21, r22
    2c7c:	c9 0b       	sbc	r28, r25
    2c7e:	d0 09       	sbc	r29, r0
    2c80:	c0 f7       	brcc	.-16     	; 0x2c72 <__ftoa_engine+0x10a>
    2c82:	e1 0c       	add	r14, r1
    2c84:	f1 1e       	adc	r15, r17
    2c86:	43 1f       	adc	r20, r19
    2c88:	56 1f       	adc	r21, r22
    2c8a:	c9 1f       	adc	r28, r25
    2c8c:	d0 1d       	adc	r29, r0
    2c8e:	7e f4       	brtc	.+30     	; 0x2cae <__ftoa_engine+0x146>
    2c90:	70 33       	cpi	r23, 0x30	; 48
    2c92:	11 f4       	brne	.+4      	; 0x2c98 <__ftoa_engine+0x130>
    2c94:	8a 95       	dec	r24
    2c96:	e6 cf       	rjmp	.-52     	; 0x2c64 <__ftoa_engine+0xfc>
    2c98:	e8 94       	clt
    2c9a:	01 50       	subi	r16, 0x01	; 1
    2c9c:	30 f0       	brcs	.+12     	; 0x2caa <__ftoa_engine+0x142>
    2c9e:	08 0f       	add	r16, r24
    2ca0:	0a f4       	brpl	.+2      	; 0x2ca4 <__ftoa_engine+0x13c>
    2ca2:	00 27       	eor	r16, r16
    2ca4:	02 17       	cp	r16, r18
    2ca6:	08 f4       	brcc	.+2      	; 0x2caa <__ftoa_engine+0x142>
    2ca8:	20 2f       	mov	r18, r16
    2caa:	23 95       	inc	r18
    2cac:	02 2f       	mov	r16, r18
    2cae:	7a 33       	cpi	r23, 0x3A	; 58
    2cb0:	28 f0       	brcs	.+10     	; 0x2cbc <__ftoa_engine+0x154>
    2cb2:	79 e3       	ldi	r23, 0x39	; 57
    2cb4:	7d 93       	st	X+, r23
    2cb6:	2a 95       	dec	r18
    2cb8:	e9 f7       	brne	.-6      	; 0x2cb4 <__ftoa_engine+0x14c>
    2cba:	10 c0       	rjmp	.+32     	; 0x2cdc <__ftoa_engine+0x174>
    2cbc:	7d 93       	st	X+, r23
    2cbe:	2a 95       	dec	r18
    2cc0:	89 f6       	brne	.-94     	; 0x2c64 <__ftoa_engine+0xfc>
    2cc2:	06 94       	lsr	r0
    2cc4:	97 95       	ror	r25
    2cc6:	67 95       	ror	r22
    2cc8:	37 95       	ror	r19
    2cca:	17 95       	ror	r17
    2ccc:	17 94       	ror	r1
    2cce:	e1 18       	sub	r14, r1
    2cd0:	f1 0a       	sbc	r15, r17
    2cd2:	43 0b       	sbc	r20, r19
    2cd4:	56 0b       	sbc	r21, r22
    2cd6:	c9 0b       	sbc	r28, r25
    2cd8:	d0 09       	sbc	r29, r0
    2cda:	98 f0       	brcs	.+38     	; 0x2d02 <__ftoa_engine+0x19a>
    2cdc:	23 95       	inc	r18
    2cde:	7e 91       	ld	r23, -X
    2ce0:	73 95       	inc	r23
    2ce2:	7a 33       	cpi	r23, 0x3A	; 58
    2ce4:	08 f0       	brcs	.+2      	; 0x2ce8 <__ftoa_engine+0x180>
    2ce6:	70 e3       	ldi	r23, 0x30	; 48
    2ce8:	7c 93       	st	X, r23
    2cea:	20 13       	cpse	r18, r16
    2cec:	b8 f7       	brcc	.-18     	; 0x2cdc <__ftoa_engine+0x174>
    2cee:	7e 91       	ld	r23, -X
    2cf0:	70 61       	ori	r23, 0x10	; 16
    2cf2:	7d 93       	st	X+, r23
    2cf4:	30 f0       	brcs	.+12     	; 0x2d02 <__ftoa_engine+0x19a>
    2cf6:	83 95       	inc	r24
    2cf8:	71 e3       	ldi	r23, 0x31	; 49
    2cfa:	7d 93       	st	X+, r23
    2cfc:	70 e3       	ldi	r23, 0x30	; 48
    2cfe:	2a 95       	dec	r18
    2d00:	e1 f7       	brne	.-8      	; 0x2cfa <__ftoa_engine+0x192>
    2d02:	11 24       	eor	r1, r1
    2d04:	ef 90       	pop	r14
    2d06:	ff 90       	pop	r15
    2d08:	0f 91       	pop	r16
    2d0a:	1f 91       	pop	r17
    2d0c:	cf 91       	pop	r28
    2d0e:	df 91       	pop	r29
    2d10:	99 27       	eor	r25, r25
    2d12:	87 fd       	sbrc	r24, 7
    2d14:	90 95       	com	r25
    2d16:	08 95       	ret

00002d18 <strnlen_P>:
    2d18:	fc 01       	movw	r30, r24
    2d1a:	05 90       	lpm	r0, Z+
    2d1c:	61 50       	subi	r22, 0x01	; 1
    2d1e:	70 40       	sbci	r23, 0x00	; 0
    2d20:	01 10       	cpse	r0, r1
    2d22:	d8 f7       	brcc	.-10     	; 0x2d1a <strnlen_P+0x2>
    2d24:	80 95       	com	r24
    2d26:	90 95       	com	r25
    2d28:	8e 0f       	add	r24, r30
    2d2a:	9f 1f       	adc	r25, r31
    2d2c:	08 95       	ret

00002d2e <strnlen>:
    2d2e:	fc 01       	movw	r30, r24
    2d30:	61 50       	subi	r22, 0x01	; 1
    2d32:	70 40       	sbci	r23, 0x00	; 0
    2d34:	01 90       	ld	r0, Z+
    2d36:	01 10       	cpse	r0, r1
    2d38:	d8 f7       	brcc	.-10     	; 0x2d30 <strnlen+0x2>
    2d3a:	80 95       	com	r24
    2d3c:	90 95       	com	r25
    2d3e:	8e 0f       	add	r24, r30
    2d40:	9f 1f       	adc	r25, r31
    2d42:	08 95       	ret

00002d44 <fputc>:
    2d44:	0f 93       	push	r16
    2d46:	1f 93       	push	r17
    2d48:	cf 93       	push	r28
    2d4a:	df 93       	push	r29
    2d4c:	8c 01       	movw	r16, r24
    2d4e:	eb 01       	movw	r28, r22
    2d50:	8b 81       	ldd	r24, Y+3	; 0x03
    2d52:	81 ff       	sbrs	r24, 1
    2d54:	1b c0       	rjmp	.+54     	; 0x2d8c <fputc+0x48>
    2d56:	82 ff       	sbrs	r24, 2
    2d58:	0d c0       	rjmp	.+26     	; 0x2d74 <fputc+0x30>
    2d5a:	2e 81       	ldd	r18, Y+6	; 0x06
    2d5c:	3f 81       	ldd	r19, Y+7	; 0x07
    2d5e:	8c 81       	ldd	r24, Y+4	; 0x04
    2d60:	9d 81       	ldd	r25, Y+5	; 0x05
    2d62:	28 17       	cp	r18, r24
    2d64:	39 07       	cpc	r19, r25
    2d66:	64 f4       	brge	.+24     	; 0x2d80 <fputc+0x3c>
    2d68:	e8 81       	ld	r30, Y
    2d6a:	f9 81       	ldd	r31, Y+1	; 0x01
    2d6c:	01 93       	st	Z+, r16
    2d6e:	f9 83       	std	Y+1, r31	; 0x01
    2d70:	e8 83       	st	Y, r30
    2d72:	06 c0       	rjmp	.+12     	; 0x2d80 <fputc+0x3c>
    2d74:	e8 85       	ldd	r30, Y+8	; 0x08
    2d76:	f9 85       	ldd	r31, Y+9	; 0x09
    2d78:	80 2f       	mov	r24, r16
    2d7a:	09 95       	icall
    2d7c:	00 97       	sbiw	r24, 0x00	; 0
    2d7e:	31 f4       	brne	.+12     	; 0x2d8c <fputc+0x48>
    2d80:	8e 81       	ldd	r24, Y+6	; 0x06
    2d82:	9f 81       	ldd	r25, Y+7	; 0x07
    2d84:	01 96       	adiw	r24, 0x01	; 1
    2d86:	9f 83       	std	Y+7, r25	; 0x07
    2d88:	8e 83       	std	Y+6, r24	; 0x06
    2d8a:	02 c0       	rjmp	.+4      	; 0x2d90 <fputc+0x4c>
    2d8c:	0f ef       	ldi	r16, 0xFF	; 255
    2d8e:	1f ef       	ldi	r17, 0xFF	; 255
    2d90:	c8 01       	movw	r24, r16
    2d92:	df 91       	pop	r29
    2d94:	cf 91       	pop	r28
    2d96:	1f 91       	pop	r17
    2d98:	0f 91       	pop	r16
    2d9a:	08 95       	ret

00002d9c <printf>:
    2d9c:	a0 e0       	ldi	r26, 0x00	; 0
    2d9e:	b0 e0       	ldi	r27, 0x00	; 0
    2da0:	e4 ed       	ldi	r30, 0xD4	; 212
    2da2:	f6 e1       	ldi	r31, 0x16	; 22
    2da4:	0c 94 79 15 	jmp	0x2af2	; 0x2af2 <__prologue_saves__+0x20>
    2da8:	fe 01       	movw	r30, r28
    2daa:	35 96       	adiw	r30, 0x05	; 5
    2dac:	61 91       	ld	r22, Z+
    2dae:	71 91       	ld	r23, Z+
    2db0:	80 91 1d 04 	lds	r24, 0x041D
    2db4:	90 91 1e 04 	lds	r25, 0x041E
    2db8:	af 01       	movw	r20, r30
    2dba:	0e 94 44 0f 	call	0x1e88	; 0x1e88 <vfprintf>
    2dbe:	20 96       	adiw	r28, 0x00	; 0
    2dc0:	e2 e0       	ldi	r30, 0x02	; 2
    2dc2:	0c 94 95 15 	jmp	0x2b2a	; 0x2b2a <__epilogue_restores__+0x20>

00002dc6 <putchar>:
    2dc6:	60 91 1d 04 	lds	r22, 0x041D
    2dca:	70 91 1e 04 	lds	r23, 0x041E
    2dce:	0e 94 a2 16 	call	0x2d44	; 0x2d44 <fputc>
    2dd2:	08 95       	ret

00002dd4 <puts>:
    2dd4:	ef 92       	push	r14
    2dd6:	ff 92       	push	r15
    2dd8:	0f 93       	push	r16
    2dda:	1f 93       	push	r17
    2ddc:	cf 93       	push	r28
    2dde:	df 93       	push	r29
    2de0:	8c 01       	movw	r16, r24
    2de2:	e0 91 1d 04 	lds	r30, 0x041D
    2de6:	f0 91 1e 04 	lds	r31, 0x041E
    2dea:	83 81       	ldd	r24, Z+3	; 0x03
    2dec:	81 ff       	sbrs	r24, 1
    2dee:	1f c0       	rjmp	.+62     	; 0x2e2e <puts+0x5a>
    2df0:	c0 e0       	ldi	r28, 0x00	; 0
    2df2:	d0 e0       	ldi	r29, 0x00	; 0
    2df4:	0a c0       	rjmp	.+20     	; 0x2e0a <puts+0x36>
    2df6:	db 01       	movw	r26, r22
    2df8:	18 96       	adiw	r26, 0x08	; 8
    2dfa:	ed 91       	ld	r30, X+
    2dfc:	fc 91       	ld	r31, X
    2dfe:	19 97       	sbiw	r26, 0x09	; 9
    2e00:	09 95       	icall
    2e02:	00 97       	sbiw	r24, 0x00	; 0
    2e04:	11 f0       	breq	.+4      	; 0x2e0a <puts+0x36>
    2e06:	cf ef       	ldi	r28, 0xFF	; 255
    2e08:	df ef       	ldi	r29, 0xFF	; 255
    2e0a:	f8 01       	movw	r30, r16
    2e0c:	81 91       	ld	r24, Z+
    2e0e:	8f 01       	movw	r16, r30
    2e10:	60 91 1d 04 	lds	r22, 0x041D
    2e14:	70 91 1e 04 	lds	r23, 0x041E
    2e18:	88 23       	and	r24, r24
    2e1a:	69 f7       	brne	.-38     	; 0x2df6 <puts+0x22>
    2e1c:	db 01       	movw	r26, r22
    2e1e:	18 96       	adiw	r26, 0x08	; 8
    2e20:	ed 91       	ld	r30, X+
    2e22:	fc 91       	ld	r31, X
    2e24:	19 97       	sbiw	r26, 0x09	; 9
    2e26:	8a e0       	ldi	r24, 0x0A	; 10
    2e28:	09 95       	icall
    2e2a:	00 97       	sbiw	r24, 0x00	; 0
    2e2c:	11 f0       	breq	.+4      	; 0x2e32 <puts+0x5e>
    2e2e:	cf ef       	ldi	r28, 0xFF	; 255
    2e30:	df ef       	ldi	r29, 0xFF	; 255
    2e32:	ce 01       	movw	r24, r28
    2e34:	cd b7       	in	r28, 0x3d	; 61
    2e36:	de b7       	in	r29, 0x3e	; 62
    2e38:	e6 e0       	ldi	r30, 0x06	; 6
    2e3a:	0c 94 91 15 	jmp	0x2b22	; 0x2b22 <__epilogue_restores__+0x18>

00002e3e <__ultoa_invert>:
    2e3e:	fa 01       	movw	r30, r20
    2e40:	aa 27       	eor	r26, r26
    2e42:	28 30       	cpi	r18, 0x08	; 8
    2e44:	51 f1       	breq	.+84     	; 0x2e9a <__ultoa_invert+0x5c>
    2e46:	20 31       	cpi	r18, 0x10	; 16
    2e48:	81 f1       	breq	.+96     	; 0x2eaa <__ultoa_invert+0x6c>
    2e4a:	e8 94       	clt
    2e4c:	6f 93       	push	r22
    2e4e:	6e 7f       	andi	r22, 0xFE	; 254
    2e50:	6e 5f       	subi	r22, 0xFE	; 254
    2e52:	7f 4f       	sbci	r23, 0xFF	; 255
    2e54:	8f 4f       	sbci	r24, 0xFF	; 255
    2e56:	9f 4f       	sbci	r25, 0xFF	; 255
    2e58:	af 4f       	sbci	r26, 0xFF	; 255
    2e5a:	b1 e0       	ldi	r27, 0x01	; 1
    2e5c:	3e d0       	rcall	.+124    	; 0x2eda <__ultoa_invert+0x9c>
    2e5e:	b4 e0       	ldi	r27, 0x04	; 4
    2e60:	3c d0       	rcall	.+120    	; 0x2eda <__ultoa_invert+0x9c>
    2e62:	67 0f       	add	r22, r23
    2e64:	78 1f       	adc	r23, r24
    2e66:	89 1f       	adc	r24, r25
    2e68:	9a 1f       	adc	r25, r26
    2e6a:	a1 1d       	adc	r26, r1
    2e6c:	68 0f       	add	r22, r24
    2e6e:	79 1f       	adc	r23, r25
    2e70:	8a 1f       	adc	r24, r26
    2e72:	91 1d       	adc	r25, r1
    2e74:	a1 1d       	adc	r26, r1
    2e76:	6a 0f       	add	r22, r26
    2e78:	71 1d       	adc	r23, r1
    2e7a:	81 1d       	adc	r24, r1
    2e7c:	91 1d       	adc	r25, r1
    2e7e:	a1 1d       	adc	r26, r1
    2e80:	20 d0       	rcall	.+64     	; 0x2ec2 <__ultoa_invert+0x84>
    2e82:	09 f4       	brne	.+2      	; 0x2e86 <__ultoa_invert+0x48>
    2e84:	68 94       	set
    2e86:	3f 91       	pop	r19
    2e88:	2a e0       	ldi	r18, 0x0A	; 10
    2e8a:	26 9f       	mul	r18, r22
    2e8c:	11 24       	eor	r1, r1
    2e8e:	30 19       	sub	r19, r0
    2e90:	30 5d       	subi	r19, 0xD0	; 208
    2e92:	31 93       	st	Z+, r19
    2e94:	de f6       	brtc	.-74     	; 0x2e4c <__ultoa_invert+0xe>
    2e96:	cf 01       	movw	r24, r30
    2e98:	08 95       	ret
    2e9a:	46 2f       	mov	r20, r22
    2e9c:	47 70       	andi	r20, 0x07	; 7
    2e9e:	40 5d       	subi	r20, 0xD0	; 208
    2ea0:	41 93       	st	Z+, r20
    2ea2:	b3 e0       	ldi	r27, 0x03	; 3
    2ea4:	0f d0       	rcall	.+30     	; 0x2ec4 <__ultoa_invert+0x86>
    2ea6:	c9 f7       	brne	.-14     	; 0x2e9a <__ultoa_invert+0x5c>
    2ea8:	f6 cf       	rjmp	.-20     	; 0x2e96 <__ultoa_invert+0x58>
    2eaa:	46 2f       	mov	r20, r22
    2eac:	4f 70       	andi	r20, 0x0F	; 15
    2eae:	40 5d       	subi	r20, 0xD0	; 208
    2eb0:	4a 33       	cpi	r20, 0x3A	; 58
    2eb2:	18 f0       	brcs	.+6      	; 0x2eba <__ultoa_invert+0x7c>
    2eb4:	49 5d       	subi	r20, 0xD9	; 217
    2eb6:	31 fd       	sbrc	r19, 1
    2eb8:	40 52       	subi	r20, 0x20	; 32
    2eba:	41 93       	st	Z+, r20
    2ebc:	02 d0       	rcall	.+4      	; 0x2ec2 <__ultoa_invert+0x84>
    2ebe:	a9 f7       	brne	.-22     	; 0x2eaa <__ultoa_invert+0x6c>
    2ec0:	ea cf       	rjmp	.-44     	; 0x2e96 <__ultoa_invert+0x58>
    2ec2:	b4 e0       	ldi	r27, 0x04	; 4
    2ec4:	a6 95       	lsr	r26
    2ec6:	97 95       	ror	r25
    2ec8:	87 95       	ror	r24
    2eca:	77 95       	ror	r23
    2ecc:	67 95       	ror	r22
    2ece:	ba 95       	dec	r27
    2ed0:	c9 f7       	brne	.-14     	; 0x2ec4 <__ultoa_invert+0x86>
    2ed2:	00 97       	sbiw	r24, 0x00	; 0
    2ed4:	61 05       	cpc	r22, r1
    2ed6:	71 05       	cpc	r23, r1
    2ed8:	08 95       	ret
    2eda:	9b 01       	movw	r18, r22
    2edc:	ac 01       	movw	r20, r24
    2ede:	0a 2e       	mov	r0, r26
    2ee0:	06 94       	lsr	r0
    2ee2:	57 95       	ror	r21
    2ee4:	47 95       	ror	r20
    2ee6:	37 95       	ror	r19
    2ee8:	27 95       	ror	r18
    2eea:	ba 95       	dec	r27
    2eec:	c9 f7       	brne	.-14     	; 0x2ee0 <__ultoa_invert+0xa2>
    2eee:	62 0f       	add	r22, r18
    2ef0:	73 1f       	adc	r23, r19
    2ef2:	84 1f       	adc	r24, r20
    2ef4:	95 1f       	adc	r25, r21
    2ef6:	a0 1d       	adc	r26, r0
    2ef8:	08 95       	ret

00002efa <_exit>:
    2efa:	f8 94       	cli

00002efc <__stop_program>:
    2efc:	ff cf       	rjmp	.-2      	; 0x2efc <__stop_program>
